

Microchip MPLAB XC8 Assembler V2.36 build 20220127204148 
                                                                                               Thu Oct 19 16:58:34 2023

Microchip MPLAB XC8 C Compiler v2.36 (Free license) build 20220127204148 Og1 
     1                           	processor	18F4620
     2                           	fnconf	rparam,??,?,0
     3                           	pagewidth 120
     4                           	opt	flic
     5                           	psect	idataCOMRAM,global,class=CODE,delta=1,noexec
     6                           	psect	idataBANK0,global,class=CODE,delta=1,noexec
     7                           	psect	smallconst,global,reloc=2,class=SMALLCONST,delta=1,noexec
     8                           	psect	nvBANK0,global,class=BANK0,space=1,delta=1,lowdata,noexec
     9                           	psect	cinit,global,reloc=2,class=CODE,delta=1
    10                           	psect	bssCOMRAM,global,class=COMRAM,space=1,delta=1,lowdata,noexec
    11                           	psect	dataCOMRAM,global,class=COMRAM,space=1,delta=1,lowdata,noexec
    12                           	psect	bssBANK0,global,class=BANK0,space=1,delta=1,lowdata,noexec
    13                           	psect	dataBANK0,global,class=BANK0,space=1,delta=1,lowdata,noexec
    14                           	psect	cstackBANK0,global,class=BANK0,space=1,delta=1,lowdata,noexec
    15                           	psect	cstackCOMRAM,global,class=COMRAM,space=1,delta=1,lowdata,noexec
    16                           	psect	text0,global,reloc=2,class=CODE,delta=1
    17                           	psect	text1,global,reloc=2,class=CODE,delta=1
    18                           	psect	text2,global,reloc=2,class=CODE,delta=1
    19                           	psect	text3,global,reloc=2,class=CODE,delta=1
    20                           	psect	text4,global,reloc=2,class=CODE,delta=1
    21                           	psect	text5,global,reloc=2,class=CODE,delta=1
    22                           	psect	text6,global,reloc=2,class=CODE,delta=1
    23                           	psect	text7,global,reloc=2,class=CODE,delta=1
    24                           	psect	text8,global,reloc=2,class=CODE,delta=1
    25                           	psect	text9,global,reloc=2,class=CODE,delta=1
    26                           	psect	text10,global,reloc=2,class=CODE,delta=1,group=1
    27                           	psect	text11,global,reloc=2,class=CODE,delta=1,group=1
    28                           	psect	text12,global,reloc=2,class=CODE,delta=1,group=1
    29                           	psect	text13,global,reloc=2,class=CODE,delta=1,group=1
    30                           	psect	text14,global,reloc=2,class=CODE,delta=1
    31                           	psect	text15,global,reloc=2,class=CODE,delta=1
    32                           	psect	text16,global,reloc=2,class=CODE,delta=1
    33                           	psect	text17,global,reloc=2,class=CODE,delta=1
    34                           	psect	text18,global,reloc=2,class=CODE,delta=1
    35                           	psect	text19,global,reloc=2,class=CODE,delta=1
    36                           	psect	text20,global,reloc=2,class=CODE,delta=1
    37                           	psect	text21,global,reloc=2,class=CODE,delta=1
    38                           	psect	text22,global,reloc=2,class=CODE,delta=1
    39                           	psect	text23,global,reloc=2,class=CODE,delta=1
    40                           	psect	text24,global,reloc=2,class=CODE,delta=1
    41                           	psect	text25,global,reloc=2,class=CODE,delta=1
    42                           	psect	intcode,global,reloc=2,class=CODE,delta=1
    43                           	psect	intcode_body,global,reloc=2,class=CODE,delta=1
    44                           	psect	text27,global,reloc=2,class=CODE,delta=1
    45                           	psect	text28,global,reloc=2,class=CODE,delta=1
    46                           	psect	text29,global,reloc=2,class=CODE,delta=1
    47                           	psect	text30,global,reloc=2,class=CODE,delta=1
    48                           	psect	text31,global,reloc=2,class=CODE,delta=1
    49                           	psect	text32,global,reloc=2,class=CODE,delta=1
    50                           	psect	text33,global,reloc=2,class=CODE,delta=1
    51                           	psect	text34,global,reloc=2,class=CODE,delta=1
    52                           	psect	text35,global,reloc=2,class=CODE,delta=1
    53                           	psect	text36,global,reloc=2,class=CODE,delta=1
    54                           	psect	text37,global,reloc=2,class=CODE,delta=1
    55                           	psect	text38,global,reloc=2,class=CODE,delta=1
    56                           	psect	text39,global,reloc=2,class=CODE,delta=1
    57                           	psect	text40,global,reloc=2,class=CODE,delta=1
    58                           	psect	text41,global,reloc=2,class=CODE,delta=1
    59                           	psect	text42,global,reloc=2,class=CODE,delta=1
    60                           	psect	text43,global,reloc=2,class=CODE,delta=1
    61                           	psect	text44,global,reloc=2,class=CODE,delta=1
    62                           	psect	intsave_regs,global,class=BIGRAM,space=1,delta=1,noexec
    63                           	psect	rparam,global,class=COMRAM,space=1,delta=1,noexec
    64                           	psect	temp,global,ovrld,common,class=COMRAM,space=1,delta=1
    65                           	psect	config,global,abs,ovrld,class=CONFIG,space=4,delta=1,noexec
    66  0000                     
    67                           ; Generated 23/03/2023 GMT
    68                           ; 
    69                           ; Copyright © 2023, Microchip Technology Inc. and its subsidiaries ("Microchip")
    70                           ; All rights reserved.
    71                           ; 
    72                           ; This software is developed by Microchip Technology Inc. and its subsidiaries ("Microch
      +                          ip").
    73                           ; 
    74                           ; Redistribution and use in source and binary forms, with or without modification, are
    75                           ; permitted provided that the following conditions are met:
    76                           ; 
    77                           ;     1. Redistributions of source code must retain the above copyright notice, this lis
      +                          t of
    78                           ;        conditions and the following disclaimer.
    79                           ; 
    80                           ;     2. Redistributions in binary form must reproduce the above copyright notice, this 
      +                          list
    81                           ;        of conditions and the following disclaimer in the documentation and/or other
    82                           ;        materials provided with the distribution. Publication is not required when
    83                           ;        this file is used in an embedded application.
    84                           ; 
    85                           ;     3. Microchip's name may not be used to endorse or promote products derived from th
      +                          is
    86                           ;        software without specific prior written permission.
    87                           ; 
    88                           ; THIS SOFTWARE IS PROVIDED BY MICROCHIP "AS IS" AND ANY EXPRESS OR IMPLIED WARRANTIES,
    89                           ; INCLUDING, BUT NOT LIMITED TO, THE IMPLIED WARRANTIES OF MERCHANTABILITY AND FITNESS F
      +                          OR
    90                           ; PURPOSE ARE DISCLAIMED.  IN NO EVENT SHALL MICROCHIP BE LIABLE FOR ANY DIRECT, INDIREC
      +                          T,
    91                           ; INCIDENTAL, SPECIAL, EXEMPLARY, OR CONSEQUENTIAL DAMAGES (INCLUDING BUT NOT LIMITED TO
    92                           ; PROCUREMENT OF SUBSTITUTE GOODS OR SERVICES; LOSS OF USE, DATA OR PROFITS; OR BUSINESS
    93                           ; INTERRUPTION) HOWSOEVER CAUSED AND ON ANY THEORY OF LIABILITY, WHETHER IN CONTRACT, ST
      +                          RICT
    94                           ; LIABILITY, OR TORT (INCLUDING NEGLIGENCE OR OTHERWISE) ARISING IN ANY WAY OUT OF THE U
      +                          SE OF
    95                           ; THIS SOFTWARE, EVEN IF ADVISED OF THE POSSIBILITY OF SUCH DAMAGE.
    96                           ; 
    97                           ; 
    98                           ; Code-generator required, PIC18F4620 Definitions
    99                           ; 
   100                           ; SFR Addresses
   101  0000                     
   102                           	psect	idataCOMRAM
   103  0030B0                     __pidataCOMRAM:
   104                           	callstack 0
   105                           
   106                           ;initializer for _RB7_Flag
   107  0030B0  01                 	db	1
   108                           
   109                           ;initializer for _RB6_Flag
   110  0030B1  01                 	db	1
   111                           
   112                           ;initializer for _RB5_Flag
   113  0030B2  01                 	db	1
   114                           
   115                           ;initializer for _RB4_Flag
   116  0030B3  01                 	db	1
   117                           
   118                           ;initializer for _motor_1
   119  0030B4  02                 	db	2
   120  0030B5  0A                 	db	10
   121                           
   122                           	psect	idataBANK0
   123  002FDA                     __pidataBANK0:
   124                           	callstack 0
   125                           
   126                           ;initializer for _port_registers
   127  002FDA  80                 	db	128
   128  002FDB  0F                 	db	15
   129  002FDC  81                 	db	129
   130  002FDD  0F                 	db	15
   131  002FDE  82                 	db	130
   132  002FDF  0F                 	db	15
   133  002FE0  83                 	db	131
   134  002FE1  0F                 	db	15
   135  002FE2  84                 	db	132
   136  002FE3  0F                 	db	15
   137                           
   138                           ;initializer for _lat_registers
   139  002FE4  89                 	db	137
   140  002FE5  0F                 	db	15
   141  002FE6  8A                 	db	138
   142  002FE7  0F                 	db	15
   143  002FE8  8B                 	db	139
   144  002FE9  0F                 	db	15
   145  002FEA  8C                 	db	140
   146  002FEB  0F                 	db	15
   147  002FEC  8D                 	db	141
   148  002FED  0F                 	db	15
   149                           
   150                           ;initializer for _tris_registers
   151  002FEE  92                 	db	146
   152  002FEF  0F                 	db	15
   153  002FF0  93                 	db	147
   154  002FF1  0F                 	db	15
   155  002FF2  94                 	db	148
   156  002FF3  0F                 	db	15
   157  002FF4  95                 	db	149
   158  002FF5  0F                 	db	15
   159  002FF6  96                 	db	150
   160  002FF7  0F                 	db	15
   161                           
   162                           ;initializer for _lcd_1
   163  002FF8  03                 	db	3
   164  002FF9  0B                 	db	11
   165  002FFA  13                 	db	19
   166  002FFB  1B                 	db	27
   167  002FFC  23                 	db	35
   168  002FFD  2B                 	db	43
   169                           
   170                           	psect	smallconst
   171  001000                     __psmallconst:
   172                           	callstack 0
   173  001000  00                 	db	0
   174  001001  37                 	db	55
   175  001002  38                 	db	56
   176  001003  39                 	db	57
   177  001004  2F                 	db	47
   178  001005  34                 	db	52
   179  001006  35                 	db	53
   180  001007  36                 	db	54
   181  001008  2A                 	db	42
   182  001009  31                 	db	49
   183  00100A  32                 	db	50
   184  00100B  33                 	db	51
   185  00100C  2D                 	db	45
   186  00100D  23                 	db	35
   187  00100E  30                 	db	48
   188  00100F  3D                 	db	61
   189  001010  2B                 	db	43
   190  001011                     __end_of_btn_value:
   191                           	callstack 0
   192  0000                     _SPBRGH	set	4016
   193  0000                     _SPBRG	set	4015
   194  0000                     _TXREG	set	4013
   195  0000                     _TXSTAbits	set	4012
   196  0000                     _RCREG	set	4014
   197  0000                     _RCSTAbits	set	4011
   198  0000                     _TMR3L	set	4018
   199  0000                     _TMR3H	set	4019
   200  0000                     _TMR1L	set	4046
   201  0000                     _TMR1H	set	4047
   202  0000                     _TMR0L	set	4054
   203  0000                     _TMR0H	set	4055
   204  0000                     _INTCON2bits	set	4081
   205  0000                     _SSPSTATbits	set	4039
   206  0000                     _SSPADD	set	4040
   207  0000                     _SSPCON2bits	set	4037
   208  0000                     _SSPCON1bits	set	4038
   209  0000                     _EECON2	set	4007
   210  0000                     _CCPR2H	set	4028
   211  0000                     _CCPR2L	set	4027
   212  0000                     _CCPR1H	set	4031
   213  0000                     _CCPR1L	set	4030
   214  0000                     _ADCON1bits	set	4033
   215  0000                     _ADRESL	set	4035
   216  0000                     _ADRESH	set	4036
   217  0000                     _INTCONbits	set	4082
   218  0000                     _TRISD	set	3989
   219  0000                     _TRISC	set	3988
   220  0000                     _TRISB	set	3987
   221  0000                     _TRISE	set	3990
   222  001011                     STR_4:
   223  001011  4C                 	db	76	;'L'
   224  001012  4D                 	db	77	;'M'
   225  001013  33                 	db	51	;'3'
   226  001014  35                 	db	53	;'5'
   227  001015  20                 	db	32
   228  001016  50                 	db	80	;'P'
   229  001017  72                 	db	114	;'r'
   230  001018  6F                 	db	111	;'o'
   231  001019  6A                 	db	106	;'j'
   232  00101A  65                 	db	101	;'e'
   233  00101B  63                 	db	99	;'c'
   234  00101C  74                 	db	116	;'t'
   235  00101D  20                 	db	32
   236  00101E  53                 	db	83	;'S'
   237  00101F  74                 	db	116	;'t'
   238  001020  61                 	db	97	;'a'
   239  001021  72                 	db	114	;'r'
   240  001022  74                 	db	116	;'t'
   241  001023  00                 	db	0
   242  001024                     STR_5:
   243  001024  54                 	db	84	;'T'
   244  001025  65                 	db	101	;'e'
   245  001026  6D                 	db	109	;'m'
   246  001027  70                 	db	112	;'p'
   247  001028  20                 	db	32
   248  001029  00                 	db	0
   249  00102A                     STR_1:
   250  00102A  25                 	db	37
   251  00102B  69                 	db	105	;'i'
   252  00102C  00                 	db	0
   253  00102D  00                 	db	0	; dummy byte at the end
   254  0000                     
   255                           	psect	nvBANK0
   256  0000EB                     __pnvBANK0:
   257                           	callstack 0
   258  0000EB                     _result:
   259                           	callstack 0
   260  0000EB                     	ds	1
   261  0000                     _PORTBbits	set	3969
   262  0000                     _TRISCbits	set	3988
   263  0000                     _PIE1bits	set	3997
   264  0000                     _ADCON2bits	set	4032
   265  0000                     _ADCON0bits	set	4034
   266  0000                     _PORTE	set	3972
   267  0000                     _PORTD	set	3971
   268  0000                     _PORTC	set	3970
   269  0000                     _PORTB	set	3969
   270  0000                     _PORTA	set	3968
   271  0000                     _LATA	set	3977
   272  0000                     _TRISA	set	3986
   273  0000                     _PIE2bits	set	4000
   274  0000                     _CCP2CONbits	set	4026
   275  0000                     _CCP1CONbits	set	4029
   276  0000                     _PIR1bits	set	3998
   277  0000                     _EECON1bits	set	4006
   278  0000                     _EEDATA	set	4008
   279  0000                     _EEADR	set	4009
   280  0000                     _EEADRH	set	4010
   281  0000                     _T3CONbits	set	4017
   282  0000                     _PIR2bits	set	4001
   283  0000                     _LATE	set	3981
   284  0000                     _LATD	set	3980
   285  0000                     _LATC	set	3979
   286  0000                     _LATB	set	3978
   287  0000                     _TMR2	set	4044
   288  0000                     _T2CONbits	set	4042
   289  0000                     _T1CONbits	set	4045
   290  0000                     _T0CONbits	set	4053
   291  0000                     _INTCON3bits	set	4080
   292  0000                     _SSPBUF	set	4041
   293  0000                     _BAUDCONbits	set	4024
   294                           
   295                           ; #config settings
   296                           
   297                           	psect	cinit
   298  002DDA                     __pcinit:
   299                           	callstack 0
   300  002DDA                     start_initialization:
   301                           	callstack 0
   302  002DDA                     __initialization:
   303                           	callstack 0
   304                           
   305                           ; Initialize objects allocated to BANK0 (36 bytes)
   306                           ; load TBLPTR registers with __pidataBANK0
   307  002DDA  0EDA               	movlw	low __pidataBANK0
   308  002DDC  6EF6               	movwf	tblptrl,c
   309  002DDE  0E2F               	movlw	high __pidataBANK0
   310  002DE0  6EF7               	movwf	tblptrh,c
   311  002DE2  0E00               	movlw	low (__pidataBANK0 shr (0+16))
   312  002DE4  6EF8               	movwf	tblptru,c
   313  002DE6  EE00  F0B5         	lfsr	0,__pdataBANK0
   314  002DEA  EE10 F024          	lfsr	1,36
   315  002DEE                     copy_data0:
   316  002DEE  0009               	tblrd		*+
   317  002DF0  CFF5 FFEE          	movff	tablat,postinc0
   318  002DF4  50E5               	movf	postdec1,w,c
   319  002DF6  50E1               	movf	fsr1l,w,c
   320  002DF8  E1FA               	bnz	copy_data0
   321                           
   322                           ; Initialize objects allocated to COMRAM (6 bytes)
   323                           ; load TBLPTR registers with __pidataCOMRAM
   324  002DFA  0EB0               	movlw	low __pidataCOMRAM
   325  002DFC  6EF6               	movwf	tblptrl,c
   326  002DFE  0E30               	movlw	high __pidataCOMRAM
   327  002E00  6EF7               	movwf	tblptrh,c
   328  002E02  0E00               	movlw	low (__pidataCOMRAM shr (0+16))
   329  002E04  6EF8               	movwf	tblptru,c
   330  002E06  EE00  F067         	lfsr	0,__pdataCOMRAM
   331  002E0A  EE10 F006          	lfsr	1,6
   332  002E0E                     copy_data1:
   333  002E0E  0009               	tblrd		*+
   334  002E10  CFF5 FFEE          	movff	tablat,postinc0
   335  002E14  50E5               	movf	postdec1,w,c
   336  002E16  50E1               	movf	fsr1l,w,c
   337  002E18  E1FA               	bnz	copy_data1
   338                           
   339                           ; Clear objects allocated to BANK0 (53 bytes)
   340  002E1A  EE00  F080         	lfsr	0,__pbssBANK0
   341  002E1E  0E35               	movlw	53
   342  002E20                     clear_0:
   343  002E20  6AEE               	clrf	postinc0,c
   344  002E22  06E8               	decf	wreg,f,c
   345  002E24  E1FD               	bnz	clear_0
   346                           
   347                           ; Clear objects allocated to COMRAM (31 bytes)
   348  002E26  EE00  F048         	lfsr	0,__pbssCOMRAM
   349  002E2A  0E1F               	movlw	31
   350  002E2C                     clear_1:
   351  002E2C  6AEE               	clrf	postinc0,c
   352  002E2E  06E8               	decf	wreg,f,c
   353  002E30  E1FD               	bnz	clear_1
   354  002E32                     end_of_initialization:
   355                           	callstack 0
   356  002E32                     __end_of__initialization:
   357                           	callstack 0
   358  002E32  906D               	bcf	int$flags,0,c	;clear compiler interrupt flag (level 1)
   359  002E34  926D               	bcf	int$flags,1,c	;clear compiler interrupt flag (level 2)
   360  002E36  0100               	movlb	0
   361  002E38  EF85  F014         	goto	_main	;jump to C main() function
   362                           
   363                           	psect	bssCOMRAM
   364  000048                     __pbssCOMRAM:
   365                           	callstack 0
   366  000048                     EUSART_ASYNC_WriteStringNonBlocking@char_counter:
   367                           	callstack 0
   368  000048                     	ds	2
   369  00004A                     EUSART_ASYNC_ReadStringNonBlocking@char_counter:
   370                           	callstack 0
   371  00004A                     	ds	2
   372  00004C                     _timer3_preload:
   373                           	callstack 0
   374  00004C                     	ds	2
   375  00004E                     _timer1_preload:
   376                           	callstack 0
   377  00004E                     	ds	2
   378  000050                     _timer0_preload:
   379                           	callstack 0
   380  000050                     	ds	2
   381  000052                     _I2C_Report_Write_Collision_InterruptHandler:
   382                           	callstack 0
   383  000052                     	ds	2
   384  000054                     CCP1_Compare_Mode_Set_Value@F3117:
   385                           	callstack 0
   386  000054                     	ds	2
   387  000056                     _CCP2_InterruptHandler:
   388                           	callstack 0
   389  000056                     	ds	2
   390  000058                     _CCP1_InterruptHandler:
   391                           	callstack 0
   392  000058                     	ds	2
   393  00005A                     _ADC_InterruptHandler:
   394                           	callstack 0
   395  00005A                     	ds	2
   396  00005C                     _rec_usart_data:
   397                           	callstack 0
   398  00005C                     	ds	1
   399  00005D                     _timer2_preload:
   400                           	callstack 0
   401  00005D                     	ds	1
   402  00005E                     relay_turn_off@F3049:
   403                           	callstack 0
   404  00005E                     	ds	1
   405  00005F                     relay_turn_on@F3044:
   406                           	callstack 0
   407  00005F                     	ds	1
   408  000060                     relay_initialize@F3039:
   409                           	callstack 0
   410  000060                     	ds	1
   411  000061                     led_turn_toggle@F3060:
   412                           	callstack 0
   413  000061                     	ds	1
   414  000062                     led_turn_off@F3055:
   415                           	callstack 0
   416  000062                     	ds	1
   417  000063                     led_turn_on@F3050:
   418                           	callstack 0
   419  000063                     	ds	1
   420  000064                     led_initialize@F3045:
   421                           	callstack 0
   422  000064                     	ds	1
   423  000065                     	ds	1
   424  000066                     	ds	1
   425                           
   426                           	psect	dataCOMRAM
   427  000067                     __pdataCOMRAM:
   428                           	callstack 0
   429  000067                     _RB7_Flag:
   430                           	callstack 0
   431  000067                     	ds	1
   432  000068                     _RB6_Flag:
   433                           	callstack 0
   434  000068                     	ds	1
   435  000069                     _RB5_Flag:
   436                           	callstack 0
   437  000069                     	ds	1
   438  00006A                     _RB4_Flag:
   439                           	callstack 0
   440  00006A                     	ds	1
   441  00006B                     _motor_1:
   442                           	callstack 0
   443  00006B                     	ds	2
   444                           
   445                           	psect	bssBANK0
   446  000080                     __pbssBANK0:
   447                           	callstack 0
   448  000080                     _lm35_res_1_celsius:
   449                           	callstack 0
   450  000080                     	ds	2
   451  000082                     _lm35_res_1:
   452                           	callstack 0
   453  000082                     	ds	2
   454  000084                     _EUSART_OverrunErrorHandler:
   455                           	callstack 0
   456  000084                     	ds	2
   457  000086                     _EUSART_FramingErrorHandler:
   458                           	callstack 0
   459  000086                     	ds	2
   460  000088                     _EUSART_RxInterruptHandler:
   461                           	callstack 0
   462  000088                     	ds	2
   463  00008A                     _EUSART_TxInterruptHandler:
   464                           	callstack 0
   465  00008A                     	ds	2
   466  00008C                     _TMR3_InterruptHandler:
   467                           	callstack 0
   468  00008C                     	ds	2
   469  00008E                     _TMR2_InterruptHandler:
   470                           	callstack 0
   471  00008E                     	ds	2
   472  000090                     _TMR1_InterruptHandler:
   473                           	callstack 0
   474  000090                     	ds	2
   475  000092                     _TMR0_InterruptHandler:
   476                           	callstack 0
   477  000092                     	ds	2
   478  000094                     _RB7_InterruptHandler_LOW:
   479                           	callstack 0
   480  000094                     	ds	2
   481  000096                     _RB7_InterruptHandler_HIGH:
   482                           	callstack 0
   483  000096                     	ds	2
   484  000098                     _RB6_InterruptHandler_LOW:
   485                           	callstack 0
   486  000098                     	ds	2
   487  00009A                     _RB6_InterruptHandler_HIGH:
   488                           	callstack 0
   489  00009A                     	ds	2
   490  00009C                     _RB5_InterruptHandler_LOW:
   491                           	callstack 0
   492  00009C                     	ds	2
   493  00009E                     _RB5_InterruptHandler_HIGH:
   494                           	callstack 0
   495  00009E                     	ds	2
   496  0000A0                     _RB4_InterruptHandler_LOW:
   497                           	callstack 0
   498  0000A0                     	ds	2
   499  0000A2                     _RB4_InterruptHandler_HIGH:
   500                           	callstack 0
   501  0000A2                     	ds	2
   502  0000A4                     _INT2_InterruptHandler:
   503                           	callstack 0
   504  0000A4                     	ds	2
   505  0000A6                     _INT1_InterruptHandler:
   506                           	callstack 0
   507  0000A6                     	ds	2
   508  0000A8                     _INT0_InterruptHandler:
   509                           	callstack 0
   510  0000A8                     	ds	2
   511  0000AA                     _I2C_Report_Receive_Overflow_InterruptHandle:
   512                           	callstack 0
   513  0000AA                     	ds	2
   514  0000AC                     _I2C_DefaultInterruptHandle:
   515                           	callstack 0
   516  0000AC                     	ds	2
   517  0000AE                     _lm35_res_2_txt:
   518                           	callstack 0
   519  0000AE                     	ds	7
   520                           
   521                           	psect	dataBANK0
   522  0000B5                     __pdataBANK0:
   523                           	callstack 0
   524  0000B5                     _port_registers:
   525                           	callstack 0
   526  0000B5                     	ds	10
   527  0000BF                     _lat_registers:
   528                           	callstack 0
   529  0000BF                     	ds	10
   530  0000C9                     _tris_registers:
   531                           	callstack 0
   532  0000C9                     	ds	10
   533  0000D3                     _lcd_1:
   534                           	callstack 0
   535  0000D3                     	ds	6
   536                           
   537                           	psect	cstackBANK0
   538  0000D9                     __pcstackBANK0:
   539                           	callstack 0
   540  0000D9                     usart_module_init@usart_obj:
   541                           	callstack 0
   542                           
   543                           ; 18 bytes @ 0x0
   544  0000D9                     	ds	18
   545                           
   546                           	psect	cstackCOMRAM
   547  000001                     __pcstackCOMRAM:
   548                           	callstack 0
   549  000001                     RB4_ISR@RB4_Source:
   550                           	callstack 0
   551  000001                     RB5_ISR@RB5_Source:
   552                           	callstack 0
   553  000001                     RB6_ISR@RB6_Source:
   554                           	callstack 0
   555  000001                     RB7_ISR@RB7_Source:
   556                           	callstack 0
   557                           
   558                           ; 1 bytes @ 0x0
   559  000001                     	ds	1
   560  000002                     ?___fltol:
   561                           	callstack 0
   562  000002                     ?___xxtofl:
   563                           	callstack 0
   564  000002                     gpio_pin_direction_initialize@_pin_config:
   565                           	callstack 0
   566  000002                     gpio_pin_write_logic@_pin_config:
   567                           	callstack 0
   568  000002                     EUSART_ASYNC_ReadStringBlocking@_data:
   569                           	callstack 0
   570  000002                     EUSART_ASYNC_TX_Init@_eusart:
   571                           	callstack 0
   572  000002                     EUSART_ASYNC_RX_Init@_eusart:
   573                           	callstack 0
   574  000002                     StringToUint8@str:
   575                           	callstack 0
   576  000002                     ___fltol@f1:
   577                           	callstack 0
   578  000002                     ___xxtofl@val:
   579                           	callstack 0
   580                           
   581                           ; 4 bytes @ 0x1
   582  000002                     	ds	2
   583  000004                     ??_gpio_pin_direction_initialize:
   584  000004                     ??_StringToUint8:
   585  000004                     gpio_pin_write_logic@logic:
   586                           	callstack 0
   587  000004                     EUSART_ASYNC_ReadStringBlocking@str_len:
   588                           	callstack 0
   589                           
   590                           ; 2 bytes @ 0x3
   591  000004                     	ds	1
   592  000005                     ??_gpio_pin_write_logic:
   593  000005                     StringToUint8@sign:
   594                           	callstack 0
   595                           
   596                           ; 1 bytes @ 0x4
   597  000005                     	ds	1
   598  000006                     ??_EUSART_ASYNC_ReadStringBlocking:
   599  000006                     ??___fltol:
   600  000006                     ??___xxtofl:
   601  000006                     StringToUint8@result:
   602                           	callstack 0
   603                           
   604                           ; 1 bytes @ 0x5
   605  000006                     	ds	3
   606  000009                     EUSART_ASYNC_ReadStringBlocking@ret:
   607                           	callstack 0
   608                           
   609                           ; 1 bytes @ 0x8
   610  000009                     	ds	1
   611  00000A                     gpio_pin_direction_initialize@ret:
   612                           	callstack 0
   613  00000A                     ___fltol@sign1:
   614                           	callstack 0
   615  00000A                     ___xxtofl@sign:
   616                           	callstack 0
   617  00000A                     EUSART_ASYNC_ReadStringBlocking@char_counter:
   618                           	callstack 0
   619                           
   620                           ; 2 bytes @ 0x9
   621  00000A                     	ds	1
   622  00000B                     gpio_pin_write_logic@ret:
   623                           	callstack 0
   624  00000B                     ___fltol@exp1:
   625                           	callstack 0
   626  00000B                     ___xxtofl@exp:
   627                           	callstack 0
   628                           
   629                           ; 1 bytes @ 0xA
   630  00000B                     	ds	1
   631  00000C                     lcd_send_4bits@lcd:
   632                           	callstack 0
   633  00000C                     lcd_4bit_send_enable_signal@lcd:
   634                           	callstack 0
   635  00000C                     dc_motor_move_right@_dc_motor:
   636                           	callstack 0
   637  00000C                     dc_motor_stop@_dc_motor:
   638                           	callstack 0
   639  00000C                     gpio_pin_initialize@_pin_config:
   640                           	callstack 0
   641  00000C                     ___xxtofl@arg:
   642                           	callstack 0
   643                           
   644                           ; 4 bytes @ 0xB
   645  00000C                     	ds	2
   646  00000E                     ??_gpio_pin_initialize:
   647  00000E                     lcd_send_4bits@_data_command:
   648                           	callstack 0
   649  00000E                     lcd_4bit_send_enable_signal@ret:
   650                           	callstack 0
   651  00000E                     dc_motor_move_right@ret:
   652                           	callstack 0
   653  00000E                     dc_motor_stop@ret:
   654                           	callstack 0
   655                           
   656                           ; 1 bytes @ 0xD
   657  00000E                     	ds	1
   658  00000F                     lcd_send_4bits@ret:
   659                           	callstack 0
   660  00000F                     gpio_pin_initialize@ret:
   661                           	callstack 0
   662                           
   663                           ; 1 bytes @ 0xE
   664  00000F                     	ds	1
   665  000010                     ?___fldiv:
   666                           	callstack 0
   667  000010                     lcd_4bit_send_command@lcd:
   668                           	callstack 0
   669  000010                     lcd_4bit_send_char_data@lcd:
   670                           	callstack 0
   671  000010                     dc_motor_initialize@_dc_motor:
   672                           	callstack 0
   673  000010                     ___fldiv@b:
   674                           	callstack 0
   675                           
   676                           ; 4 bytes @ 0xF
   677  000010                     	ds	2
   678  000012                     lcd_4bit_send_command@command:
   679                           	callstack 0
   680  000012                     lcd_4bit_send_char_data@data:
   681                           	callstack 0
   682  000012                     dc_motor_initialize@ret:
   683                           	callstack 0
   684                           
   685                           ; 1 bytes @ 0x11
   686  000012                     	ds	1
   687  000013                     lcd_4bit_send_command@ret:
   688                           	callstack 0
   689  000013                     lcd_4bit_send_char_data@ret:
   690                           	callstack 0
   691                           
   692                           ; 1 bytes @ 0x12
   693  000013                     	ds	1
   694  000014                     lcd_4bit_initialize@lcd:
   695                           	callstack 0
   696  000014                     lcd_4bit_set_cursor@lcd:
   697                           	callstack 0
   698  000014                     ___fldiv@a:
   699                           	callstack 0
   700                           
   701                           ; 4 bytes @ 0x13
   702  000014                     	ds	2
   703  000016                     ??_lcd_4bit_initialize:
   704  000016                     lcd_4bit_set_cursor@row:
   705                           	callstack 0
   706                           
   707                           ; 1 bytes @ 0x15
   708  000016                     	ds	1
   709  000017                     lcd_4bit_set_cursor@coulmn:
   710                           	callstack 0
   711                           
   712                           ; 1 bytes @ 0x16
   713  000017                     	ds	1
   714  000018                     ??_lcd_4bit_set_cursor:
   715  000018                     ??___fldiv:
   716  000018                     lcd_4bit_initialize@l_data_pins_counter:
   717                           	callstack 0
   718                           
   719                           ; 1 bytes @ 0x17
   720  000018                     	ds	1
   721  000019                     lcd_4bit_initialize@ret:
   722                           	callstack 0
   723                           
   724                           ; 1 bytes @ 0x18
   725  000019                     	ds	1
   726  00001A                     lcd_4bit_set_cursor@ret:
   727                           	callstack 0
   728                           
   729                           ; 1 bytes @ 0x19
   730  00001A                     	ds	1
   731  00001B                     lcd_4bit_send_string_pos@lcd:
   732                           	callstack 0
   733                           
   734                           ; 2 bytes @ 0x1A
   735  00001B                     	ds	1
   736  00001C                     ___fldiv@rem:
   737                           	callstack 0
   738                           
   739                           ; 4 bytes @ 0x1B
   740  00001C                     	ds	1
   741  00001D                     lcd_4bit_send_string_pos@row:
   742                           	callstack 0
   743                           
   744                           ; 1 bytes @ 0x1C
   745  00001D                     	ds	1
   746  00001E                     lcd_4bit_send_string_pos@col:
   747                           	callstack 0
   748                           
   749                           ; 1 bytes @ 0x1D
   750  00001E                     	ds	1
   751  00001F                     lcd_4bit_send_string_pos@str:
   752                           	callstack 0
   753                           
   754                           ; 2 bytes @ 0x1E
   755  00001F                     	ds	1
   756  000020                     ___fldiv@sign:
   757                           	callstack 0
   758                           
   759                           ; 1 bytes @ 0x1F
   760  000020                     	ds	1
   761  000021                     lcd_4bit_send_string_pos@ret:
   762                           	callstack 0
   763  000021                     ___fldiv@new_exp:
   764                           	callstack 0
   765                           
   766                           ; 2 bytes @ 0x20
   767  000021                     	ds	2
   768  000023                     ___fldiv@grs:
   769                           	callstack 0
   770                           
   771                           ; 4 bytes @ 0x22
   772  000023                     	ds	4
   773  000027                     ___fldiv@bexp:
   774                           	callstack 0
   775                           
   776                           ; 1 bytes @ 0x26
   777  000027                     	ds	1
   778  000028                     ___fldiv@aexp:
   779                           	callstack 0
   780                           
   781                           ; 1 bytes @ 0x27
   782  000028                     	ds	1
   783  000029                     ?___fladd:
   784                           	callstack 0
   785  000029                     ___fladd@b:
   786                           	callstack 0
   787                           
   788                           ; 4 bytes @ 0x28
   789  000029                     	ds	4
   790  00002D                     ___fladd@a:
   791                           	callstack 0
   792                           
   793                           ; 4 bytes @ 0x2C
   794  00002D                     	ds	4
   795  000031                     ??___fladd:
   796                           
   797                           ; 1 bytes @ 0x30
   798  000031                     	ds	4
   799  000035                     ___fladd@signs:
   800                           	callstack 0
   801                           
   802                           ; 1 bytes @ 0x34
   803  000035                     	ds	1
   804  000036                     ___fladd@aexp:
   805                           	callstack 0
   806                           
   807                           ; 1 bytes @ 0x35
   808  000036                     	ds	1
   809  000037                     ___fladd@bexp:
   810                           	callstack 0
   811                           
   812                           ; 1 bytes @ 0x36
   813  000037                     	ds	1
   814  000038                     ___fladd@grs:
   815                           	callstack 0
   816                           
   817                           ; 1 bytes @ 0x37
   818  000038                     	ds	1
   819  000039                     EUSART_Baud_Rate_Calculation@_eusart:
   820                           	callstack 0
   821                           
   822                           ; 2 bytes @ 0x38
   823  000039                     	ds	2
   824  00003B                     ??_EUSART_Baud_Rate_Calculation:
   825                           
   826                           ; 1 bytes @ 0x3A
   827  00003B                     	ds	2
   828  00003D                     EUSART_Baud_Rate_Calculation@Baud_Rate_Temp:
   829                           	callstack 0
   830                           
   831                           ; 4 bytes @ 0x3C
   832  00003D                     	ds	4
   833  000041                     _EUSART_Baud_Rate_Calculation$5085:
   834                           	callstack 0
   835                           
   836                           ; 4 bytes @ 0x40
   837  000041                     	ds	4
   838  000045                     EUSART_ASYNC_Init@_eusart:
   839                           	callstack 0
   840                           
   841                           ; 2 bytes @ 0x44
   842  000045                     	ds	2
   843  000047                     EUSART_ASYNC_Init@ret:
   844                           	callstack 0
   845                           
   846                           ; 1 bytes @ 0x46
   847  000047                     	ds	1
   848  000048                     
   849                           ; 1 bytes @ 0x47
   850 ;;
   851 ;;Main: autosize = 0, tempsize = 0, incstack = 0, save=0
   852 ;;
   853 ;; *************** function _main *****************
   854 ;; Defined at:
   855 ;;		line 79 in file "app.c"
   856 ;; Parameters:    Size  Location     Type
   857 ;;		None
   858 ;; Auto vars:     Size  Location     Type
   859 ;;  ret             1    0        unsigned char 
   860 ;; Return value:  Size  Location     Type
   861 ;;                  2  1608[None  ] int 
   862 ;; Registers used:
   863 ;;		wreg, fsr0l, fsr0h, fsr2l, fsr2h, status,2, status,0, tblptrl, tblptrh, tblptru, prodl, prodh, cstack
   864 ;; Tracked objects:
   865 ;;		On entry : 0/0
   866 ;;		On exit  : 0/0
   867 ;;		Unchanged: 0/0
   868 ;; Data sizes:     COMRAM   BANK0   BANK1   BANK2   BANK3   BANK4   BANK5   BANK6   BANK7   BANK8   BANK9  BANK10  BANK1
      +1  BANK12  BANK13  BANK14  BANK15
   869 ;;      Params:         0       0       0       0       0       0       0       0       0       0       0       0       
      +0       0       0       0       0
   870 ;;      Locals:         0       0       0       0       0       0       0       0       0       0       0       0       
      +0       0       0       0       0
   871 ;;      Temps:          0       0       0       0       0       0       0       0       0       0       0       0       
      +0       0       0       0       0
   872 ;;      Totals:         0       0       0       0       0       0       0       0       0       0       0       0       
      +0       0       0       0       0
   873 ;;Total ram usage:        0 bytes
   874 ;; Hardware stack levels required when called: 7
   875 ;; This function calls:
   876 ;;		_EUSART_ASYNC_ReadStringBlocking
   877 ;;		_StringToUint8
   878 ;;		_app_initialize
   879 ;;		_dc_motor_move_right
   880 ;;		_dc_motor_stop
   881 ;;		_lcd_4bit_send_string_pos
   882 ;; This function is called by:
   883 ;;		Startup code after reset
   884 ;; This function uses a non-reentrant model
   885 ;;
   886                           
   887                           	psect	text0
   888  00290A                     __ptext0:
   889                           	callstack 0
   890  00290A                     _main:
   891                           	callstack 24
   892  00290A                     
   893                           ;app.c: 83:     app_initialize();
   894  00290A  ECFF  F017         	call	_app_initialize	;wreg free
   895  00290E  0ED3               	movlw	low _lcd_1
   896  002910  6E1B               	movwf	lcd_4bit_send_string_pos@lcd^0,c
   897  002912  0E00               	movlw	high _lcd_1
   898  002914  6E1C               	movwf	(lcd_4bit_send_string_pos@lcd+1)^0,c
   899  002916  0E01               	movlw	1
   900  002918  6E1D               	movwf	lcd_4bit_send_string_pos@row^0,c
   901  00291A  0E02               	movlw	2
   902  00291C  6E1E               	movwf	lcd_4bit_send_string_pos@col^0,c
   903  00291E  0E11               	movlw	low STR_4
   904  002920  6E1F               	movwf	lcd_4bit_send_string_pos@str^0,c
   905  002922  0E10               	movlw	high STR_4
   906  002924  6E20               	movwf	(lcd_4bit_send_string_pos@str+1)^0,c
   907  002926  EC83  F015         	call	_lcd_4bit_send_string_pos	;wreg free
   908  00292A  0ED3               	movlw	low _lcd_1
   909  00292C  6E1B               	movwf	lcd_4bit_send_string_pos@lcd^0,c
   910  00292E  0E00               	movlw	high _lcd_1
   911  002930  6E1C               	movwf	(lcd_4bit_send_string_pos@lcd+1)^0,c
   912  002932  0E02               	movlw	2
   913  002934  6E1D               	movwf	lcd_4bit_send_string_pos@row^0,c
   914  002936  0E01               	movlw	1
   915  002938  6E1E               	movwf	lcd_4bit_send_string_pos@col^0,c
   916  00293A  0E24               	movlw	low STR_5
   917  00293C  6E1F               	movwf	lcd_4bit_send_string_pos@str^0,c
   918  00293E  0E10               	movlw	high STR_5
   919  002940  6E20               	movwf	(lcd_4bit_send_string_pos@str+1)^0,c
   920  002942  EC83  F015         	call	_lcd_4bit_send_string_pos	;wreg free
   921  002946                     l8113:
   922  002946  0EAE               	movlw	low _lm35_res_2_txt
   923  002948  6E02               	movwf	EUSART_ASYNC_ReadStringBlocking@_data^0,c
   924  00294A  0E00               	movlw	high _lm35_res_2_txt
   925  00294C  6E03               	movwf	(EUSART_ASYNC_ReadStringBlocking@_data+1)^0,c
   926  00294E  0E00               	movlw	0
   927  002950  6E05               	movwf	(EUSART_ASYNC_ReadStringBlocking@str_len+1)^0,c
   928  002952  0E07               	movlw	7
   929  002954  6E04               	movwf	EUSART_ASYNC_ReadStringBlocking@str_len^0,c
   930  002956  EC31  F015         	call	_EUSART_ASYNC_ReadStringBlocking	;wreg free
   931  00295A  0ED3               	movlw	low _lcd_1
   932  00295C  6E1B               	movwf	lcd_4bit_send_string_pos@lcd^0,c
   933  00295E  0E00               	movlw	high _lcd_1
   934  002960  6E1C               	movwf	(lcd_4bit_send_string_pos@lcd+1)^0,c
   935  002962  0E02               	movlw	2
   936  002964  6E1D               	movwf	lcd_4bit_send_string_pos@row^0,c
   937  002966  0E08               	movlw	8
   938  002968  6E1E               	movwf	lcd_4bit_send_string_pos@col^0,c
   939  00296A  0EAE               	movlw	low _lm35_res_2_txt
   940  00296C  6E1F               	movwf	lcd_4bit_send_string_pos@str^0,c
   941  00296E  0E00               	movlw	high _lm35_res_2_txt
   942  002970  6E20               	movwf	(lcd_4bit_send_string_pos@str+1)^0,c
   943  002972  EC83  F015         	call	_lcd_4bit_send_string_pos	;wreg free
   944  002976                     
   945                           ;app.c: 95:         result = StringToUint8(lm35_res_2_txt);
   946  002976  0EAE               	movlw	low _lm35_res_2_txt
   947  002978  6E02               	movwf	StringToUint8@str^0,c
   948  00297A  0E00               	movlw	high _lm35_res_2_txt
   949  00297C  6E03               	movwf	(StringToUint8@str+1)^0,c
   950  00297E  ECD3  F015         	call	_StringToUint8	;wreg free
   951  002982  0100               	movlb	0	; () banked
   952  002984  6FEB               	movwf	_result& (0+255),b
   953  002986                     
   954                           ; BSR set to: 0
   955                           ;app.c: 98:         if(result >= 25){
   956  002986  0E18               	movlw	24
   957  002988  65EB               	cpfsgt	_result& (0+255),b
   958  00298A  EFC9  F014         	goto	u7871
   959  00298E  EFCB  F014         	goto	u7870
   960  002992                     u7871:
   961  002992  EFD3  F014         	goto	l8123
   962  002996                     u7870:
   963  002996                     
   964                           ; BSR set to: 0
   965  002996  0E6B               	movlw	low _motor_1
   966  002998  6E0C               	movwf	dc_motor_move_right@_dc_motor^0,c
   967  00299A  0E00               	movlw	high _motor_1
   968  00299C  6E0D               	movwf	(dc_motor_move_right@_dc_motor+1)^0,c
   969  00299E  EC90  F017         	call	_dc_motor_move_right	;wreg free
   970                           
   971                           ;app.c: 100:         }
   972  0029A2  EFA3  F014         	goto	l8113
   973  0029A6                     l8123:
   974                           
   975                           ; BSR set to: 0
   976  0029A6  0E6B               	movlw	low _motor_1
   977  0029A8  6E0C               	movwf	dc_motor_stop@_dc_motor^0,c
   978  0029AA  0E00               	movlw	high _motor_1
   979  0029AC  6E0D               	movwf	(dc_motor_stop@_dc_motor+1)^0,c
   980  0029AE  EC6D  F017         	call	_dc_motor_stop	;wreg free
   981  0029B2  EFA3  F014         	goto	l8113
   982  0029B6  EF07  F000         	goto	start
   983  0029BA                     __end_of_main:
   984                           	callstack 0
   985                           
   986 ;; *************** function _lcd_4bit_send_string_pos *****************
   987 ;; Defined at:
   988 ;;		line 114 in file "ECU/Chr_LCD/ecu_chr_lcd.c"
   989 ;; Parameters:    Size  Location     Type
   990 ;;  lcd             2   26[COMRAM] PTR const struct .
   991 ;;		 -> lcd_1(6), 
   992 ;;  row             1   28[COMRAM] unsigned char 
   993 ;;  col             1   29[COMRAM] unsigned char 
   994 ;;  str             2   30[COMRAM] PTR unsigned char 
   995 ;;		 -> lm35_res_2_txt(7), STR_5(6), STR_4(19), 
   996 ;; Auto vars:     Size  Location     Type
   997 ;;  ret             1   32[COMRAM] unsigned char 
   998 ;; Return value:  Size  Location     Type
   999 ;;                  1    wreg      unsigned char 
  1000 ;; Registers used:
  1001 ;;		wreg, fsr0l, fsr0h, fsr2l, fsr2h, status,2, status,0, tblptrl, tblptrh, tblptru, prodl, prodh, cstack
  1002 ;; Tracked objects:
  1003 ;;		On entry : 0/0
  1004 ;;		On exit  : 0/0
  1005 ;;		Unchanged: 0/0
  1006 ;; Data sizes:     COMRAM   BANK0   BANK1   BANK2   BANK3   BANK4   BANK5   BANK6   BANK7   BANK8   BANK9  BANK10  BANK1
      +1  BANK12  BANK13  BANK14  BANK15
  1007 ;;      Params:         6       0       0       0       0       0       0       0       0       0       0       0       
      +0       0       0       0       0
  1008 ;;      Locals:         1       0       0       0       0       0       0       0       0       0       0       0       
      +0       0       0       0       0
  1009 ;;      Temps:          0       0       0       0       0       0       0       0       0       0       0       0       
      +0       0       0       0       0
  1010 ;;      Totals:         7       0       0       0       0       0       0       0       0       0       0       0       
      +0       0       0       0       0
  1011 ;;Total ram usage:        7 bytes
  1012 ;; Hardware stack levels used: 1
  1013 ;; Hardware stack levels required when called: 6
  1014 ;; This function calls:
  1015 ;;		_lcd_4bit_send_char_data
  1016 ;;		_lcd_4bit_set_cursor
  1017 ;; This function is called by:
  1018 ;;		_main
  1019 ;; This function uses a non-reentrant model
  1020 ;;
  1021                           
  1022                           	psect	text1
  1023  002B06                     __ptext1:
  1024                           	callstack 0
  1025  002B06                     _lcd_4bit_send_string_pos:
  1026                           	callstack 24
  1027  002B06                     
  1028                           ;ECU/Chr_LCD/ecu_chr_lcd.c: 117:     if(((void*)0) == lcd){
  1029  002B06  501B               	movf	lcd_4bit_send_string_pos@lcd^0,w,c
  1030  002B08  101C               	iorwf	(lcd_4bit_send_string_pos@lcd+1)^0,w,c
  1031  002B0A  A4D8               	btfss	status,2,c
  1032  002B0C  EF8A  F015         	goto	u5061
  1033  002B10  EF8C  F015         	goto	u5060
  1034  002B14                     u5061:
  1035  002B14  EF90  F015         	goto	l6115
  1036  002B18                     u5060:
  1037  002B18                     
  1038                           ;ECU/Chr_LCD/ecu_chr_lcd.c: 118:         ret = (Std_ReturnType)0x00;
  1039  002B18  0E00               	movlw	0
  1040  002B1A  6E21               	movwf	lcd_4bit_send_string_pos@ret^0,c
  1041                           
  1042                           ;ECU/Chr_LCD/ecu_chr_lcd.c: 119:     }
  1043  002B1C  EFD1  F015         	goto	l6123
  1044  002B20                     l6115:
  1045                           
  1046                           ;ECU/Chr_LCD/ecu_chr_lcd.c: 121:         ret = lcd_4bit_set_cursor(lcd, row, col);
  1047  002B20  C01B  F014         	movff	lcd_4bit_send_string_pos@lcd,lcd_4bit_set_cursor@lcd
  1048  002B24  C01C  F015         	movff	lcd_4bit_send_string_pos@lcd+1,lcd_4bit_set_cursor@lcd+1
  1049  002B28  C01D  F016         	movff	lcd_4bit_send_string_pos@row,lcd_4bit_set_cursor@row
  1050  002B2C  C01E  F017         	movff	lcd_4bit_send_string_pos@col,lcd_4bit_set_cursor@coulmn
  1051  002B30  ECDD  F014         	call	_lcd_4bit_set_cursor	;wreg free
  1052  002B34  6E21               	movwf	lcd_4bit_send_string_pos@ret^0,c
  1053                           
  1054                           ;ECU/Chr_LCD/ecu_chr_lcd.c: 122:         while(*str){
  1055  002B36  EFB8  F015         	goto	l6121
  1056  002B3A                     l6117:
  1057                           
  1058                           ;ECU/Chr_LCD/ecu_chr_lcd.c: 123:             ret = lcd_4bit_send_char_data(lcd, *str++);
  1059  002B3A  C01B  F010         	movff	lcd_4bit_send_string_pos@lcd,lcd_4bit_send_char_data@lcd
  1060  002B3E  C01C  F011         	movff	lcd_4bit_send_string_pos@lcd+1,lcd_4bit_send_char_data@lcd+1
  1061  002B42  C01F  FFF6         	movff	lcd_4bit_send_string_pos@str,tblptrl
  1062  002B46  C020  FFF7         	movff	lcd_4bit_send_string_pos@str+1,tblptrh
  1063  002B4A  0E00               	movlw	low (__smallconst shr (0+16))
  1064  002B4C  6EF8               	movwf	tblptru,c
  1065  002B4E  0E0F               	movlw	(high __ramtop+-1)
  1066  002B50  64F7               	cpfsgt	tblptrh,c
  1067  002B52  D003               	bra	u5077
  1068  002B54  0008               	tblrd		*
  1069  002B56  50F5               	movf	tablat,w,c
  1070  002B58  D005               	bra	u5070
  1071  002B5A                     u5077:
  1072  002B5A  CFF6 FFE9          	movff	tblptrl,fsr0l
  1073  002B5E  CFF7 FFEA          	movff	tblptrh,fsr0h
  1074  002B62  50EF               	movf	indf0,w,c
  1075  002B64                     u5070:
  1076  002B64  6E12               	movwf	lcd_4bit_send_char_data@data^0,c
  1077  002B66  EC11  F016         	call	_lcd_4bit_send_char_data	;wreg free
  1078  002B6A  6E21               	movwf	lcd_4bit_send_string_pos@ret^0,c
  1079  002B6C  4A1F               	infsnz	lcd_4bit_send_string_pos@str^0,f,c
  1080  002B6E  2A20               	incf	(lcd_4bit_send_string_pos@str+1)^0,f,c
  1081  002B70                     l6121:
  1082                           
  1083                           ;ECU/Chr_LCD/ecu_chr_lcd.c: 122:         while(*str){
  1084  002B70  C01F  FFF6         	movff	lcd_4bit_send_string_pos@str,tblptrl
  1085  002B74  C020  FFF7         	movff	lcd_4bit_send_string_pos@str+1,tblptrh
  1086  002B78  0E00               	movlw	low (__smallconst shr (0+16))
  1087  002B7A  6EF8               	movwf	tblptru,c
  1088  002B7C  0E0F               	movlw	(high __ramtop+-1)
  1089  002B7E  64F7               	cpfsgt	tblptrh,c
  1090  002B80  D003               	bra	u5087
  1091  002B82  0008               	tblrd		*
  1092  002B84  50F5               	movf	tablat,w,c
  1093  002B86  D005               	bra	u5080
  1094  002B88                     u5087:
  1095  002B88  CFF6 FFE9          	movff	tblptrl,fsr0l
  1096  002B8C  CFF7 FFEA          	movff	tblptrh,fsr0h
  1097  002B90  50EF               	movf	indf0,w,c
  1098  002B92                     u5080:
  1099  002B92  0900               	iorlw	0
  1100  002B94  A4D8               	btfss	status,2,c
  1101  002B96  EFCF  F015         	goto	u5091
  1102  002B9A  EFD1  F015         	goto	u5090
  1103  002B9E                     u5091:
  1104  002B9E  EF9D  F015         	goto	l6117
  1105  002BA2                     u5090:
  1106  002BA2                     l6123:
  1107                           
  1108                           ;ECU/Chr_LCD/ecu_chr_lcd.c: 126:     return ret;
  1109  002BA2  5021               	movf	lcd_4bit_send_string_pos@ret^0,w,c
  1110  002BA4  0012               	return		;funcret
  1111  002BA6                     __end_of_lcd_4bit_send_string_pos:
  1112                           	callstack 0
  1113                           
  1114 ;; *************** function _lcd_4bit_set_cursor *****************
  1115 ;; Defined at:
  1116 ;;		line 342 in file "ECU/Chr_LCD/ecu_chr_lcd.c"
  1117 ;; Parameters:    Size  Location     Type
  1118 ;;  lcd             2   19[COMRAM] PTR const struct .
  1119 ;;		 -> lcd_1(6), 
  1120 ;;  row             1   21[COMRAM] unsigned char 
  1121 ;;  coulmn          1   22[COMRAM] unsigned char 
  1122 ;; Auto vars:     Size  Location     Type
  1123 ;;  ret             1   25[COMRAM] unsigned char 
  1124 ;; Return value:  Size  Location     Type
  1125 ;;                  1    wreg      unsigned char 
  1126 ;; Registers used:
  1127 ;;		wreg, fsr2l, fsr2h, status,2, status,0, prodl, prodh, cstack
  1128 ;; Tracked objects:
  1129 ;;		On entry : 0/0
  1130 ;;		On exit  : 0/0
  1131 ;;		Unchanged: 0/0
  1132 ;; Data sizes:     COMRAM   BANK0   BANK1   BANK2   BANK3   BANK4   BANK5   BANK6   BANK7   BANK8   BANK9  BANK10  BANK1
      +1  BANK12  BANK13  BANK14  BANK15
  1133 ;;      Params:         4       0       0       0       0       0       0       0       0       0       0       0       
      +0       0       0       0       0
  1134 ;;      Locals:         1       0       0       0       0       0       0       0       0       0       0       0       
      +0       0       0       0       0
  1135 ;;      Temps:          2       0       0       0       0       0       0       0       0       0       0       0       
      +0       0       0       0       0
  1136 ;;      Totals:         7       0       0       0       0       0       0       0       0       0       0       0       
      +0       0       0       0       0
  1137 ;;Total ram usage:        7 bytes
  1138 ;; Hardware stack levels used: 1
  1139 ;; Hardware stack levels required when called: 5
  1140 ;; This function calls:
  1141 ;;		_lcd_4bit_send_command
  1142 ;; This function is called by:
  1143 ;;		_lcd_4bit_send_string_pos
  1144 ;;		_lcd_4bit_send_char_data_pos
  1145 ;; This function uses a non-reentrant model
  1146 ;;
  1147                           
  1148                           	psect	text2
  1149  0029BA                     __ptext2:
  1150                           	callstack 0
  1151  0029BA                     _lcd_4bit_set_cursor:
  1152                           	callstack 24
  1153  0029BA                     
  1154                           ;ECU/Chr_LCD/ecu_chr_lcd.c: 343:     Std_ReturnType ret = (Std_ReturnType)0x01;
  1155  0029BA  0E01               	movlw	1
  1156  0029BC  6E1A               	movwf	lcd_4bit_set_cursor@ret^0,c
  1157  0029BE                     
  1158                           ;ECU/Chr_LCD/ecu_chr_lcd.c: 344:     coulmn--;
  1159  0029BE  0617               	decf	lcd_4bit_set_cursor@coulmn^0,f,c
  1160                           
  1161                           ;ECU/Chr_LCD/ecu_chr_lcd.c: 345:     switch(row){
  1162  0029C0  EF12  F015         	goto	l6013
  1163  0029C4                     l6005:
  1164  0029C4  C014  F010         	movff	lcd_4bit_set_cursor@lcd,lcd_4bit_send_command@lcd
  1165  0029C8  C015  F011         	movff	lcd_4bit_set_cursor@lcd+1,lcd_4bit_send_command@lcd+1
  1166  0029CC  5017               	movf	lcd_4bit_set_cursor@coulmn^0,w,c
  1167  0029CE  0F80               	addlw	128
  1168  0029D0  6E12               	movwf	lcd_4bit_send_command@command^0,c
  1169  0029D2  EC4A  F016         	call	_lcd_4bit_send_command	;wreg free
  1170  0029D6  6E1A               	movwf	lcd_4bit_set_cursor@ret^0,c
  1171  0029D8  EF2F  F015         	goto	l6015
  1172  0029DC                     l6007:
  1173  0029DC  C014  F010         	movff	lcd_4bit_set_cursor@lcd,lcd_4bit_send_command@lcd
  1174  0029E0  C015  F011         	movff	lcd_4bit_set_cursor@lcd+1,lcd_4bit_send_command@lcd+1
  1175  0029E4  5017               	movf	lcd_4bit_set_cursor@coulmn^0,w,c
  1176  0029E6  0FC0               	addlw	192
  1177  0029E8  6E12               	movwf	lcd_4bit_send_command@command^0,c
  1178  0029EA  EC4A  F016         	call	_lcd_4bit_send_command	;wreg free
  1179  0029EE  6E1A               	movwf	lcd_4bit_set_cursor@ret^0,c
  1180  0029F0  EF2F  F015         	goto	l6015
  1181  0029F4                     l6009:
  1182  0029F4  C014  F010         	movff	lcd_4bit_set_cursor@lcd,lcd_4bit_send_command@lcd
  1183  0029F8  C015  F011         	movff	lcd_4bit_set_cursor@lcd+1,lcd_4bit_send_command@lcd+1
  1184  0029FC  5017               	movf	lcd_4bit_set_cursor@coulmn^0,w,c
  1185  0029FE  0F94               	addlw	148
  1186  002A00  6E12               	movwf	lcd_4bit_send_command@command^0,c
  1187  002A02  EC4A  F016         	call	_lcd_4bit_send_command	;wreg free
  1188  002A06  6E1A               	movwf	lcd_4bit_set_cursor@ret^0,c
  1189  002A08  EF2F  F015         	goto	l6015
  1190  002A0C                     l6011:
  1191  002A0C  C014  F010         	movff	lcd_4bit_set_cursor@lcd,lcd_4bit_send_command@lcd
  1192  002A10  C015  F011         	movff	lcd_4bit_set_cursor@lcd+1,lcd_4bit_send_command@lcd+1
  1193  002A14  5017               	movf	lcd_4bit_set_cursor@coulmn^0,w,c
  1194  002A16  0FD4               	addlw	212
  1195  002A18  6E12               	movwf	lcd_4bit_send_command@command^0,c
  1196  002A1A  EC4A  F016         	call	_lcd_4bit_send_command	;wreg free
  1197  002A1E  6E1A               	movwf	lcd_4bit_set_cursor@ret^0,c
  1198  002A20  EF2F  F015         	goto	l6015
  1199  002A24                     l6013:
  1200  002A24  5016               	movf	lcd_4bit_set_cursor@row^0,w,c
  1201  002A26  6E18               	movwf	??_lcd_4bit_set_cursor^0,c
  1202  002A28  6A19               	clrf	(??_lcd_4bit_set_cursor+1)^0,c
  1203                           
  1204                           ; Switch on 2 bytes has been partitioned into a top level switch of size 1, and 1 sub-sw
      +                          itches
  1205                           ; Switch size 1, requested type "simple"
  1206                           ; Number of cases is 1, Range of values is 0 to 0
  1207                           ; switch strategies available:
  1208                           ; Name         Instructions Cycles
  1209                           ; simple_byte            4     3 (average)
  1210                           ;	Chosen strategy is simple_byte
  1211  002A2A  5019               	movf	(??_lcd_4bit_set_cursor+1)^0,w,c
  1212  002A2C  0A00               	xorlw	0	; case 0
  1213  002A2E  B4D8               	btfsc	status,2,c
  1214  002A30  EF1C  F015         	goto	l8205
  1215  002A34  EF2F  F015         	goto	l6015
  1216  002A38                     l8205:
  1217                           
  1218                           ; Switch size 1, requested type "simple"
  1219                           ; Number of cases is 4, Range of values is 1 to 4
  1220                           ; switch strategies available:
  1221                           ; Name         Instructions Cycles
  1222                           ; simple_byte           13     7 (average)
  1223                           ;	Chosen strategy is simple_byte
  1224  002A38  5018               	movf	??_lcd_4bit_set_cursor^0,w,c
  1225  002A3A  0A01               	xorlw	1	; case 1
  1226  002A3C  B4D8               	btfsc	status,2,c
  1227  002A3E  EFE2  F014         	goto	l6005
  1228  002A42  0A03               	xorlw	3	; case 2
  1229  002A44  B4D8               	btfsc	status,2,c
  1230  002A46  EFEE  F014         	goto	l6007
  1231  002A4A  0A01               	xorlw	1	; case 3
  1232  002A4C  B4D8               	btfsc	status,2,c
  1233  002A4E  EFFA  F014         	goto	l6009
  1234  002A52  0A07               	xorlw	7	; case 4
  1235  002A54  B4D8               	btfsc	status,2,c
  1236  002A56  EF06  F015         	goto	l6011
  1237  002A5A  EF2F  F015         	goto	l6015
  1238  002A5E                     l6015:
  1239                           
  1240                           ;ECU/Chr_LCD/ecu_chr_lcd.c: 352:     return ret;
  1241  002A5E  501A               	movf	lcd_4bit_set_cursor@ret^0,w,c
  1242  002A60  0012               	return		;funcret
  1243  002A62                     __end_of_lcd_4bit_set_cursor:
  1244                           	callstack 0
  1245                           
  1246 ;; *************** function _lcd_4bit_send_char_data *****************
  1247 ;; Defined at:
  1248 ;;		line 71 in file "ECU/Chr_LCD/ecu_chr_lcd.c"
  1249 ;; Parameters:    Size  Location     Type
  1250 ;;  lcd             2   15[COMRAM] PTR const struct .
  1251 ;;		 -> lcd_1(6), 
  1252 ;;  data            1   17[COMRAM] unsigned char 
  1253 ;; Auto vars:     Size  Location     Type
  1254 ;;  ret             1   18[COMRAM] unsigned char 
  1255 ;; Return value:  Size  Location     Type
  1256 ;;                  1    wreg      unsigned char 
  1257 ;; Registers used:
  1258 ;;		wreg, fsr2l, fsr2h, status,2, status,0, prodl, prodh, cstack
  1259 ;; Tracked objects:
  1260 ;;		On entry : 0/0
  1261 ;;		On exit  : 0/0
  1262 ;;		Unchanged: 0/0
  1263 ;; Data sizes:     COMRAM   BANK0   BANK1   BANK2   BANK3   BANK4   BANK5   BANK6   BANK7   BANK8   BANK9  BANK10  BANK1
      +1  BANK12  BANK13  BANK14  BANK15
  1264 ;;      Params:         3       0       0       0       0       0       0       0       0       0       0       0       
      +0       0       0       0       0
  1265 ;;      Locals:         1       0       0       0       0       0       0       0       0       0       0       0       
      +0       0       0       0       0
  1266 ;;      Temps:          0       0       0       0       0       0       0       0       0       0       0       0       
      +0       0       0       0       0
  1267 ;;      Totals:         4       0       0       0       0       0       0       0       0       0       0       0       
      +0       0       0       0       0
  1268 ;;Total ram usage:        4 bytes
  1269 ;; Hardware stack levels used: 1
  1270 ;; Hardware stack levels required when called: 4
  1271 ;; This function calls:
  1272 ;;		_gpio_pin_write_logic
  1273 ;;		_lcd_4bit_send_enable_signal
  1274 ;;		_lcd_send_4bits
  1275 ;; This function is called by:
  1276 ;;		_lcd_4bit_send_string_pos
  1277 ;;		_lcd_4bit_send_char_data_pos
  1278 ;;		_lcd_4bit_send_string
  1279 ;;		_lcd_4bit_send_custome_char
  1280 ;;		_lcd_8bit_send_string
  1281 ;; This function uses a non-reentrant model
  1282 ;;
  1283                           
  1284                           	psect	text3
  1285  002C22                     __ptext3:
  1286                           	callstack 0
  1287  002C22                     _lcd_4bit_send_char_data:
  1288                           	callstack 25
  1289  002C22                     
  1290                           ;ECU/Chr_LCD/ecu_chr_lcd.c: 74:     if(((void*)0) == lcd){
  1291  002C22  5010               	movf	lcd_4bit_send_char_data@lcd^0,w,c
  1292  002C24  1011               	iorwf	(lcd_4bit_send_char_data@lcd+1)^0,w,c
  1293  002C26  A4D8               	btfss	status,2,c
  1294  002C28  EF18  F016         	goto	u5001
  1295  002C2C  EF1A  F016         	goto	u5000
  1296  002C30                     u5001:
  1297  002C30  EF1E  F016         	goto	l5995
  1298  002C34                     u5000:
  1299  002C34                     
  1300                           ;ECU/Chr_LCD/ecu_chr_lcd.c: 75:         ret = (Std_ReturnType)0x00;
  1301  002C34  0E00               	movlw	0
  1302  002C36  6E13               	movwf	lcd_4bit_send_char_data@ret^0,c
  1303                           
  1304                           ;ECU/Chr_LCD/ecu_chr_lcd.c: 76:     }
  1305  002C38  EF48  F016         	goto	l5997
  1306  002C3C                     l5995:
  1307                           
  1308                           ;ECU/Chr_LCD/ecu_chr_lcd.c: 78:         ret = gpio_pin_write_logic(&(lcd->lcd_rs), GPIO_
      +                          HIGH);
  1309  002C3C  C010  F002         	movff	lcd_4bit_send_char_data@lcd,gpio_pin_write_logic@_pin_config
  1310  002C40  C011  F003         	movff	lcd_4bit_send_char_data@lcd+1,gpio_pin_write_logic@_pin_config+1
  1311  002C44  0E01               	movlw	1
  1312  002C46  6E04               	movwf	gpio_pin_write_logic@logic^0,c
  1313  002C48  EC22  F012         	call	_gpio_pin_write_logic	;wreg free
  1314  002C4C  6E13               	movwf	lcd_4bit_send_char_data@ret^0,c
  1315                           
  1316                           ;ECU/Chr_LCD/ecu_chr_lcd.c: 79:         ret = lcd_send_4bits(lcd, (data >> 4));
  1317  002C4E  C010  F00C         	movff	lcd_4bit_send_char_data@lcd,lcd_send_4bits@lcd
  1318  002C52  C011  F00D         	movff	lcd_4bit_send_char_data@lcd+1,lcd_send_4bits@lcd+1
  1319  002C56  3812               	swapf	lcd_4bit_send_char_data@data^0,w,c
  1320  002C58  0B0F               	andlw	15
  1321  002C5A  6E0E               	movwf	lcd_send_4bits@_data_command^0,c
  1322  002C5C  ECB9  F016         	call	_lcd_send_4bits	;wreg free
  1323  002C60  6E13               	movwf	lcd_4bit_send_char_data@ret^0,c
  1324                           
  1325                           ;ECU/Chr_LCD/ecu_chr_lcd.c: 80:         ret = lcd_4bit_send_enable_signal(lcd);
  1326  002C62  C010  F00C         	movff	lcd_4bit_send_char_data@lcd,lcd_4bit_send_enable_signal@lcd
  1327  002C66  C011  F00D         	movff	lcd_4bit_send_char_data@lcd+1,lcd_4bit_send_enable_signal@lcd+1
  1328  002C6A  ECD2  F017         	call	_lcd_4bit_send_enable_signal	;wreg free
  1329  002C6E  6E13               	movwf	lcd_4bit_send_char_data@ret^0,c
  1330                           
  1331                           ;ECU/Chr_LCD/ecu_chr_lcd.c: 81:         ret = lcd_send_4bits(lcd, data);
  1332  002C70  C010  F00C         	movff	lcd_4bit_send_char_data@lcd,lcd_send_4bits@lcd
  1333  002C74  C011  F00D         	movff	lcd_4bit_send_char_data@lcd+1,lcd_send_4bits@lcd+1
  1334  002C78  C012  F00E         	movff	lcd_4bit_send_char_data@data,lcd_send_4bits@_data_command
  1335  002C7C  ECB9  F016         	call	_lcd_send_4bits	;wreg free
  1336  002C80  6E13               	movwf	lcd_4bit_send_char_data@ret^0,c
  1337                           
  1338                           ;ECU/Chr_LCD/ecu_chr_lcd.c: 82:         ret = lcd_4bit_send_enable_signal(lcd);
  1339  002C82  C010  F00C         	movff	lcd_4bit_send_char_data@lcd,lcd_4bit_send_enable_signal@lcd
  1340  002C86  C011  F00D         	movff	lcd_4bit_send_char_data@lcd+1,lcd_4bit_send_enable_signal@lcd+1
  1341  002C8A  ECD2  F017         	call	_lcd_4bit_send_enable_signal	;wreg free
  1342  002C8E  6E13               	movwf	lcd_4bit_send_char_data@ret^0,c
  1343  002C90                     l5997:
  1344                           
  1345                           ;ECU/Chr_LCD/ecu_chr_lcd.c: 84:     return ret;
  1346  002C90  5013               	movf	lcd_4bit_send_char_data@ret^0,w,c
  1347  002C92  0012               	return		;funcret
  1348  002C94                     __end_of_lcd_4bit_send_char_data:
  1349                           	callstack 0
  1350                           
  1351 ;; *************** function _dc_motor_stop *****************
  1352 ;; Defined at:
  1353 ;;		line 76 in file "ECU/DC_Motor/ecu_dc_motor.c"
  1354 ;; Parameters:    Size  Location     Type
  1355 ;;  _dc_motor       2   11[COMRAM] PTR const struct .
  1356 ;;		 -> motor_1(2), 
  1357 ;; Auto vars:     Size  Location     Type
  1358 ;;  ret             1   13[COMRAM] unsigned char 
  1359 ;; Return value:  Size  Location     Type
  1360 ;;                  1    wreg      unsigned char 
  1361 ;; Registers used:
  1362 ;;		wreg, fsr2l, fsr2h, status,2, status,0, prodl, prodh, cstack
  1363 ;; Tracked objects:
  1364 ;;		On entry : 0/0
  1365 ;;		On exit  : 0/0
  1366 ;;		Unchanged: 0/0
  1367 ;; Data sizes:     COMRAM   BANK0   BANK1   BANK2   BANK3   BANK4   BANK5   BANK6   BANK7   BANK8   BANK9  BANK10  BANK1
      +1  BANK12  BANK13  BANK14  BANK15
  1368 ;;      Params:         2       0       0       0       0       0       0       0       0       0       0       0       
      +0       0       0       0       0
  1369 ;;      Locals:         1       0       0       0       0       0       0       0       0       0       0       0       
      +0       0       0       0       0
  1370 ;;      Temps:          0       0       0       0       0       0       0       0       0       0       0       0       
      +0       0       0       0       0
  1371 ;;      Totals:         3       0       0       0       0       0       0       0       0       0       0       0       
      +0       0       0       0       0
  1372 ;;Total ram usage:        3 bytes
  1373 ;; Hardware stack levels used: 1
  1374 ;; Hardware stack levels required when called: 3
  1375 ;; This function calls:
  1376 ;;		_gpio_pin_write_logic
  1377 ;; This function is called by:
  1378 ;;		_main
  1379 ;; This function uses a non-reentrant model
  1380 ;;
  1381                           
  1382                           	psect	text4
  1383  002EDA                     __ptext4:
  1384                           	callstack 0
  1385  002EDA                     _dc_motor_stop:
  1386                           	callstack 27
  1387  002EDA                     
  1388                           ;ECU/DC_Motor/ecu_dc_motor.c: 77:     Std_ReturnType ret = (Std_ReturnType)0x01;
  1389  002EDA  0E01               	movlw	1
  1390  002EDC  6E0E               	movwf	dc_motor_stop@ret^0,c
  1391  002EDE                     
  1392                           ;ECU/DC_Motor/ecu_dc_motor.c: 78:     if(((void*)0) == _dc_motor){
  1393  002EDE  500C               	movf	dc_motor_stop@_dc_motor^0,w,c
  1394  002EE0  100D               	iorwf	(dc_motor_stop@_dc_motor+1)^0,w,c
  1395  002EE2  A4D8               	btfss	status,2,c
  1396  002EE4  EF76  F017         	goto	u5171
  1397  002EE8  EF78  F017         	goto	u5170
  1398  002EEC                     u5171:
  1399  002EEC  EF7C  F017         	goto	l6199
  1400  002EF0                     u5170:
  1401  002EF0                     
  1402                           ;ECU/DC_Motor/ecu_dc_motor.c: 79:        ret = (Std_ReturnType)0x00;
  1403  002EF0  0E00               	movlw	0
  1404  002EF2  6E0E               	movwf	dc_motor_stop@ret^0,c
  1405                           
  1406                           ;ECU/DC_Motor/ecu_dc_motor.c: 80:     }
  1407  002EF4  EF8E  F017         	goto	l6201
  1408  002EF8                     l6199:
  1409                           
  1410                           ;ECU/DC_Motor/ecu_dc_motor.c: 82:         gpio_pin_write_logic(&(_dc_motor->dc_motor_pin
      +                          [0x00U]), GPIO_LOW);
  1411  002EF8  C00C  F002         	movff	dc_motor_stop@_dc_motor,gpio_pin_write_logic@_pin_config
  1412  002EFC  C00D  F003         	movff	dc_motor_stop@_dc_motor+1,gpio_pin_write_logic@_pin_config+1
  1413  002F00  0E00               	movlw	0
  1414  002F02  6E04               	movwf	gpio_pin_write_logic@logic^0,c
  1415  002F04  EC22  F012         	call	_gpio_pin_write_logic	;wreg free
  1416                           
  1417                           ;ECU/DC_Motor/ecu_dc_motor.c: 83:         gpio_pin_write_logic(&(_dc_motor->dc_motor_pin
      +                          [0x01U]), GPIO_LOW);
  1418  002F08  0E01               	movlw	1
  1419  002F0A  240C               	addwf	dc_motor_stop@_dc_motor^0,w,c
  1420  002F0C  6E02               	movwf	gpio_pin_write_logic@_pin_config^0,c
  1421  002F0E  0E00               	movlw	0
  1422  002F10  200D               	addwfc	(dc_motor_stop@_dc_motor+1)^0,w,c
  1423  002F12  6E03               	movwf	(gpio_pin_write_logic@_pin_config+1)^0,c
  1424  002F14  0E00               	movlw	0
  1425  002F16  6E04               	movwf	gpio_pin_write_logic@logic^0,c
  1426  002F18  EC22  F012         	call	_gpio_pin_write_logic	;wreg free
  1427  002F1C                     l6201:
  1428                           
  1429                           ;ECU/DC_Motor/ecu_dc_motor.c: 85:     return ret;
  1430  002F1C  500E               	movf	dc_motor_stop@ret^0,w,c
  1431  002F1E  0012               	return		;funcret
  1432  002F20                     __end_of_dc_motor_stop:
  1433                           	callstack 0
  1434                           
  1435 ;; *************** function _dc_motor_move_right *****************
  1436 ;; Defined at:
  1437 ;;		line 38 in file "ECU/DC_Motor/ecu_dc_motor.c"
  1438 ;; Parameters:    Size  Location     Type
  1439 ;;  _dc_motor       2   11[COMRAM] PTR const struct .
  1440 ;;		 -> motor_1(2), 
  1441 ;; Auto vars:     Size  Location     Type
  1442 ;;  ret             1   13[COMRAM] unsigned char 
  1443 ;; Return value:  Size  Location     Type
  1444 ;;                  1    wreg      unsigned char 
  1445 ;; Registers used:
  1446 ;;		wreg, fsr2l, fsr2h, status,2, status,0, prodl, prodh, cstack
  1447 ;; Tracked objects:
  1448 ;;		On entry : 0/0
  1449 ;;		On exit  : 0/0
  1450 ;;		Unchanged: 0/0
  1451 ;; Data sizes:     COMRAM   BANK0   BANK1   BANK2   BANK3   BANK4   BANK5   BANK6   BANK7   BANK8   BANK9  BANK10  BANK1
      +1  BANK12  BANK13  BANK14  BANK15
  1452 ;;      Params:         2       0       0       0       0       0       0       0       0       0       0       0       
      +0       0       0       0       0
  1453 ;;      Locals:         1       0       0       0       0       0       0       0       0       0       0       0       
      +0       0       0       0       0
  1454 ;;      Temps:          0       0       0       0       0       0       0       0       0       0       0       0       
      +0       0       0       0       0
  1455 ;;      Totals:         3       0       0       0       0       0       0       0       0       0       0       0       
      +0       0       0       0       0
  1456 ;;Total ram usage:        3 bytes
  1457 ;; Hardware stack levels used: 1
  1458 ;; Hardware stack levels required when called: 3
  1459 ;; This function calls:
  1460 ;;		_gpio_pin_write_logic
  1461 ;; This function is called by:
  1462 ;;		_main
  1463 ;; This function uses a non-reentrant model
  1464 ;;
  1465                           
  1466                           	psect	text5
  1467  002F20                     __ptext5:
  1468                           	callstack 0
  1469  002F20                     _dc_motor_move_right:
  1470                           	callstack 27
  1471  002F20                     
  1472                           ;ECU/DC_Motor/ecu_dc_motor.c: 39:     Std_ReturnType ret = (Std_ReturnType)0x01;
  1473  002F20  0E01               	movlw	1
  1474  002F22  6E0E               	movwf	dc_motor_move_right@ret^0,c
  1475  002F24                     
  1476                           ;ECU/DC_Motor/ecu_dc_motor.c: 40:     if(((void*)0) == _dc_motor){
  1477  002F24  500C               	movf	dc_motor_move_right@_dc_motor^0,w,c
  1478  002F26  100D               	iorwf	(dc_motor_move_right@_dc_motor+1)^0,w,c
  1479  002F28  A4D8               	btfss	status,2,c
  1480  002F2A  EF99  F017         	goto	u5161
  1481  002F2E  EF9B  F017         	goto	u5160
  1482  002F32                     u5161:
  1483  002F32  EF9F  F017         	goto	l6187
  1484  002F36                     u5160:
  1485  002F36                     
  1486                           ;ECU/DC_Motor/ecu_dc_motor.c: 41:        ret = (Std_ReturnType)0x00;
  1487  002F36  0E00               	movlw	0
  1488  002F38  6E0E               	movwf	dc_motor_move_right@ret^0,c
  1489                           
  1490                           ;ECU/DC_Motor/ecu_dc_motor.c: 42:     }
  1491  002F3A  EFB1  F017         	goto	l6189
  1492  002F3E                     l6187:
  1493                           
  1494                           ;ECU/DC_Motor/ecu_dc_motor.c: 44:         gpio_pin_write_logic(&(_dc_motor->dc_motor_pin
      +                          [0x00U]), GPIO_HIGH);
  1495  002F3E  C00C  F002         	movff	dc_motor_move_right@_dc_motor,gpio_pin_write_logic@_pin_config
  1496  002F42  C00D  F003         	movff	dc_motor_move_right@_dc_motor+1,gpio_pin_write_logic@_pin_config+1
  1497  002F46  0E01               	movlw	1
  1498  002F48  6E04               	movwf	gpio_pin_write_logic@logic^0,c
  1499  002F4A  EC22  F012         	call	_gpio_pin_write_logic	;wreg free
  1500                           
  1501                           ;ECU/DC_Motor/ecu_dc_motor.c: 45:         gpio_pin_write_logic(&(_dc_motor->dc_motor_pin
      +                          [0x01U]), GPIO_LOW);
  1502  002F4E  0E01               	movlw	1
  1503  002F50  240C               	addwf	dc_motor_move_right@_dc_motor^0,w,c
  1504  002F52  6E02               	movwf	gpio_pin_write_logic@_pin_config^0,c
  1505  002F54  0E00               	movlw	0
  1506  002F56  200D               	addwfc	(dc_motor_move_right@_dc_motor+1)^0,w,c
  1507  002F58  6E03               	movwf	(gpio_pin_write_logic@_pin_config+1)^0,c
  1508  002F5A  0E00               	movlw	0
  1509  002F5C  6E04               	movwf	gpio_pin_write_logic@logic^0,c
  1510  002F5E  EC22  F012         	call	_gpio_pin_write_logic	;wreg free
  1511  002F62                     l6189:
  1512                           
  1513                           ;ECU/DC_Motor/ecu_dc_motor.c: 47:     return ret;
  1514  002F62  500E               	movf	dc_motor_move_right@ret^0,w,c
  1515  002F64  0012               	return		;funcret
  1516  002F66                     __end_of_dc_motor_move_right:
  1517                           	callstack 0
  1518                           
  1519 ;; *************** function _app_initialize *****************
  1520 ;; Defined at:
  1521 ;;		line 109 in file "app.c"
  1522 ;; Parameters:    Size  Location     Type
  1523 ;;		None
  1524 ;; Auto vars:     Size  Location     Type
  1525 ;;  ret             1    0        unsigned char 
  1526 ;; Return value:  Size  Location     Type
  1527 ;;                  1    wreg      void 
  1528 ;; Registers used:
  1529 ;;		wreg, fsr2l, fsr2h, status,2, status,0, prodl, prodh, cstack
  1530 ;; Tracked objects:
  1531 ;;		On entry : 0/0
  1532 ;;		On exit  : 0/0
  1533 ;;		Unchanged: 0/0
  1534 ;; Data sizes:     COMRAM   BANK0   BANK1   BANK2   BANK3   BANK4   BANK5   BANK6   BANK7   BANK8   BANK9  BANK10  BANK1
      +1  BANK12  BANK13  BANK14  BANK15
  1535 ;;      Params:         0       0       0       0       0       0       0       0       0       0       0       0       
      +0       0       0       0       0
  1536 ;;      Locals:         0       0       0       0       0       0       0       0       0       0       0       0       
      +0       0       0       0       0
  1537 ;;      Temps:          0       0       0       0       0       0       0       0       0       0       0       0       
      +0       0       0       0       0
  1538 ;;      Totals:         0       0       0       0       0       0       0       0       0       0       0       0       
      +0       0       0       0       0
  1539 ;;Total ram usage:        0 bytes
  1540 ;; Hardware stack levels used: 1
  1541 ;; Hardware stack levels required when called: 6
  1542 ;; This function calls:
  1543 ;;		_dc_motor_initialize
  1544 ;;		_lcd_4bit_initialize
  1545 ;;		_usart_module_init
  1546 ;; This function is called by:
  1547 ;;		_main
  1548 ;; This function uses a non-reentrant model
  1549 ;;
  1550                           
  1551                           	psect	text6
  1552  002FFE                     __ptext6:
  1553                           	callstack 0
  1554  002FFE                     _app_initialize:
  1555                           	callstack 24
  1556  002FFE  0ED3               	movlw	low _lcd_1
  1557  003000  6E14               	movwf	lcd_4bit_initialize@lcd^0,c
  1558  003002  0E00               	movlw	high _lcd_1
  1559  003004  6E15               	movwf	(lcd_4bit_initialize@lcd+1)^0,c
  1560  003006  EC3B  F013         	call	_lcd_4bit_initialize	;wreg free
  1561  00300A  0E6B               	movlw	low _motor_1
  1562  00300C  6E10               	movwf	dc_motor_initialize@_dc_motor^0,c
  1563  00300E  0E00               	movlw	high _motor_1
  1564  003010  6E11               	movwf	(dc_motor_initialize@_dc_motor+1)^0,c
  1565  003012  ECB3  F017         	call	_dc_motor_initialize	;wreg free
  1566  003016                     
  1567                           ;app.c: 113:     usart_module_init();
  1568  003016  EC1E  F017         	call	_usart_module_init	;wreg free
  1569  00301A  0012               	return		;funcret
  1570  00301C                     __end_of_app_initialize:
  1571                           	callstack 0
  1572                           
  1573 ;; *************** function _usart_module_init *****************
  1574 ;; Defined at:
  1575 ;;		line 55 in file "app.c"
  1576 ;; Parameters:    Size  Location     Type
  1577 ;;		None
  1578 ;; Auto vars:     Size  Location     Type
  1579 ;;  usart_obj      18    0[BANK0 ] struct .
  1580 ;;  ret             1    0        unsigned char 
  1581 ;; Return value:  Size  Location     Type
  1582 ;;                  1    wreg      void 
  1583 ;; Registers used:
  1584 ;;		wreg, fsr2l, fsr2h, status,2, status,0, cstack
  1585 ;; Tracked objects:
  1586 ;;		On entry : 0/0
  1587 ;;		On exit  : 0/0
  1588 ;;		Unchanged: 0/0
  1589 ;; Data sizes:     COMRAM   BANK0   BANK1   BANK2   BANK3   BANK4   BANK5   BANK6   BANK7   BANK8   BANK9  BANK10  BANK1
      +1  BANK12  BANK13  BANK14  BANK15
  1590 ;;      Params:         0       0       0       0       0       0       0       0       0       0       0       0       
      +0       0       0       0       0
  1591 ;;      Locals:         0      18       0       0       0       0       0       0       0       0       0       0       
      +0       0       0       0       0
  1592 ;;      Temps:          0       0       0       0       0       0       0       0       0       0       0       0       
      +0       0       0       0       0
  1593 ;;      Totals:         0      18       0       0       0       0       0       0       0       0       0       0       
      +0       0       0       0       0
  1594 ;;Total ram usage:       18 bytes
  1595 ;; Hardware stack levels used: 1
  1596 ;; Hardware stack levels required when called: 5
  1597 ;; This function calls:
  1598 ;;		_EUSART_ASYNC_Init
  1599 ;; This function is called by:
  1600 ;;		_app_initialize
  1601 ;; This function uses a non-reentrant model
  1602 ;;
  1603                           
  1604                           	psect	text7
  1605  002E3C                     __ptext7:
  1606                           	callstack 0
  1607  002E3C                     _usart_module_init:
  1608                           	callstack 24
  1609  002E3C                     
  1610                           ;app.c: 59:     usart_obj.baudrate = 9600;
  1611  002E3C  0E80               	movlw	128
  1612  002E3E  0100               	movlb	0	; () banked
  1613  002E40  6FD9               	movwf	usart_module_init@usart_obj& (0+255),b
  1614  002E42  0E25               	movlw	37
  1615  002E44  6FDA               	movwf	(usart_module_init@usart_obj+1)& (0+255),b
  1616  002E46  0E00               	movlw	0
  1617  002E48  6FDB               	movwf	(usart_module_init@usart_obj+2)& (0+255),b
  1618  002E4A  0E00               	movlw	0
  1619  002E4C  6FDC               	movwf	(usart_module_init@usart_obj+3)& (0+255),b
  1620                           
  1621                           ;app.c: 60:     usart_obj.baudrate_gen_gonfig = BAUDRATE_ASYN_8BIT_lOW_SPEED;
  1622  002E4E  0E00               	movlw	0
  1623  002E50  6FDD               	movwf	(usart_module_init@usart_obj+4)& (0+255),b
  1624  002E52                     
  1625                           ; BSR set to: 0
  1626                           ;app.c: 62:     usart_obj.usart_tx_cfg.usart_tx_enable = 1;
  1627  002E52  81DF               	bsf	(usart_module_init@usart_obj+6)& (0+255),0,b
  1628  002E54                     
  1629                           ; BSR set to: 0
  1630                           ;app.c: 63:     usart_obj.usart_tx_cfg.usart_tx_interrupt_enable = 0;
  1631  002E54  93DF               	bcf	(usart_module_init@usart_obj+6)& (0+255),1,b
  1632  002E56                     
  1633                           ; BSR set to: 0
  1634                           ;app.c: 64:     usart_obj.usart_tx_cfg.usart_tx_9bit_enable = 0;
  1635  002E56  95DF               	bcf	(usart_module_init@usart_obj+6)& (0+255),2,b
  1636  002E58                     
  1637                           ; BSR set to: 0
  1638                           ;app.c: 66:     usart_obj.usart_rx_cfg.usart_rx_enable = 1;
  1639  002E58  81E1               	bsf	(usart_module_init@usart_obj+8)& (0+255),0,b
  1640  002E5A                     
  1641                           ; BSR set to: 0
  1642                           ;app.c: 67:     usart_obj.usart_rx_cfg.usart_rx_interrupt_enable = 0;
  1643  002E5A  93E1               	bcf	(usart_module_init@usart_obj+8)& (0+255),1,b
  1644  002E5C                     
  1645                           ; BSR set to: 0
  1646                           ;app.c: 68:     usart_obj.usart_rx_cfg.usart_rx_9bit_enable = 0;
  1647  002E5C  95E1               	bcf	(usart_module_init@usart_obj+8)& (0+255),2,b
  1648  002E5E                     
  1649                           ; BSR set to: 0
  1650                           ;app.c: 70:     usart_obj.EUSART_TxDefaultInterruptHandler = ((void*)0);
  1651  002E5E  0E00               	movlw	0
  1652  002E60  6FE3               	movwf	(usart_module_init@usart_obj+10)& (0+255),b
  1653  002E62  0E00               	movlw	0
  1654  002E64  6FE4               	movwf	(usart_module_init@usart_obj+11)& (0+255),b
  1655  002E66                     
  1656                           ; BSR set to: 0
  1657                           ;app.c: 71:     usart_obj.EUSART_RxDefaultInterruptHandler = ((void*)0);
  1658  002E66  0E00               	movlw	0
  1659  002E68  6FE5               	movwf	(usart_module_init@usart_obj+12)& (0+255),b
  1660  002E6A  0E00               	movlw	0
  1661  002E6C  6FE6               	movwf	(usart_module_init@usart_obj+13)& (0+255),b
  1662  002E6E                     
  1663                           ; BSR set to: 0
  1664                           ;app.c: 72:     usart_obj.EUSART_FramingErrorHandler = ((void*)0);
  1665  002E6E  0E00               	movlw	0
  1666  002E70  6FE7               	movwf	(usart_module_init@usart_obj+14)& (0+255),b
  1667  002E72  0E00               	movlw	0
  1668  002E74  6FE8               	movwf	(usart_module_init@usart_obj+15)& (0+255),b
  1669  002E76                     
  1670                           ; BSR set to: 0
  1671                           ;app.c: 73:     usart_obj.EUSART_OverrunErrorHandler = ((void*)0);
  1672  002E76  0E00               	movlw	0
  1673  002E78  6FE9               	movwf	(usart_module_init@usart_obj+16)& (0+255),b
  1674  002E7A  0E00               	movlw	0
  1675  002E7C  6FEA               	movwf	(usart_module_init@usart_obj+17)& (0+255),b
  1676  002E7E                     
  1677                           ; BSR set to: 0
  1678  002E7E  0ED9               	movlw	low usart_module_init@usart_obj
  1679  002E80  6E45               	movwf	EUSART_ASYNC_Init@_eusart^0,c
  1680  002E82  0E00               	movlw	high usart_module_init@usart_obj
  1681  002E84  6E46               	movwf	(EUSART_ASYNC_Init@_eusart+1)^0,c
  1682  002E86  EC46  F017         	call	_EUSART_ASYNC_Init	;wreg free
  1683  002E8A  0012               	return		;funcret
  1684  002E8C                     __end_of_usart_module_init:
  1685                           	callstack 0
  1686                           
  1687 ;; *************** function _EUSART_ASYNC_Init *****************
  1688 ;; Defined at:
  1689 ;;		line 23 in file "MCAL/usart/hal_usart.c"
  1690 ;; Parameters:    Size  Location     Type
  1691 ;;  _eusart         2   68[COMRAM] PTR const struct .
  1692 ;;		 -> usart_module_init@usart_obj(18), 
  1693 ;; Auto vars:     Size  Location     Type
  1694 ;;  ret             1   70[COMRAM] unsigned char 
  1695 ;; Return value:  Size  Location     Type
  1696 ;;                  1    wreg      unsigned char 
  1697 ;; Registers used:
  1698 ;;		wreg, fsr2l, fsr2h, status,2, status,0, cstack
  1699 ;; Tracked objects:
  1700 ;;		On entry : 0/0
  1701 ;;		On exit  : 0/0
  1702 ;;		Unchanged: 0/0
  1703 ;; Data sizes:     COMRAM   BANK0   BANK1   BANK2   BANK3   BANK4   BANK5   BANK6   BANK7   BANK8   BANK9  BANK10  BANK1
      +1  BANK12  BANK13  BANK14  BANK15
  1704 ;;      Params:         2       0       0       0       0       0       0       0       0       0       0       0       
      +0       0       0       0       0
  1705 ;;      Locals:         1       0       0       0       0       0       0       0       0       0       0       0       
      +0       0       0       0       0
  1706 ;;      Temps:          0       0       0       0       0       0       0       0       0       0       0       0       
      +0       0       0       0       0
  1707 ;;      Totals:         3       0       0       0       0       0       0       0       0       0       0       0       
      +0       0       0       0       0
  1708 ;;Total ram usage:        3 bytes
  1709 ;; Hardware stack levels used: 1
  1710 ;; Hardware stack levels required when called: 4
  1711 ;; This function calls:
  1712 ;;		_EUSART_ASYNC_RX_Init
  1713 ;;		_EUSART_ASYNC_TX_Init
  1714 ;;		_EUSART_Baud_Rate_Calculation
  1715 ;; This function is called by:
  1716 ;;		_usart_module_init
  1717 ;; This function uses a non-reentrant model
  1718 ;;
  1719                           
  1720                           	psect	text8
  1721  002E8C                     __ptext8:
  1722                           	callstack 0
  1723  002E8C                     _EUSART_ASYNC_Init:
  1724                           	callstack 24
  1725  002E8C                     
  1726                           ;MCAL/usart/hal_usart.c: 25:     if(((void*)0) == _eusart){
  1727  002E8C  5045               	movf	EUSART_ASYNC_Init@_eusart^0,w,c
  1728  002E8E  1046               	iorwf	(EUSART_ASYNC_Init@_eusart+1)^0,w,c
  1729  002E90  A4D8               	btfss	status,2,c
  1730  002E92  EF4D  F017         	goto	u7771
  1731  002E96  EF4F  F017         	goto	u7770
  1732  002E9A                     u7771:
  1733  002E9A  EF53  F017         	goto	l1447
  1734  002E9E                     u7770:
  1735  002E9E                     
  1736                           ;MCAL/usart/hal_usart.c: 26:         ret = (Std_ReturnType)0x00;
  1737  002E9E  0E00               	movlw	0
  1738  002EA0  6E47               	movwf	EUSART_ASYNC_Init@ret^0,c
  1739                           
  1740                           ;MCAL/usart/hal_usart.c: 27:     }
  1741  002EA2  EF6B  F017         	goto	l8015
  1742  002EA6                     l1447:
  1743                           
  1744                           ;MCAL/usart/hal_usart.c: 29:         RCSTAbits.SPEN = 0;
  1745  002EA6  9EAB               	bcf	171,7,c	;volatile
  1746                           
  1747                           ;MCAL/usart/hal_usart.c: 30:         TRISCbits.RC7 = 1;
  1748  002EA8  8E94               	bsf	148,7,c	;volatile
  1749                           
  1750                           ;MCAL/usart/hal_usart.c: 31:         TRISCbits.RC6 = 1;
  1751  002EAA  8C94               	bsf	148,6,c	;volatile
  1752  002EAC                     
  1753                           ;MCAL/usart/hal_usart.c: 32:         EUSART_Baud_Rate_Calculation(_eusart);
  1754  002EAC  C045  F039         	movff	EUSART_ASYNC_Init@_eusart,EUSART_Baud_Rate_Calculation@_eusart
  1755  002EB0  C046  F03A         	movff	EUSART_ASYNC_Init@_eusart+1,EUSART_Baud_Rate_Calculation@_eusart+1
  1756  002EB4  EC17  F008         	call	_EUSART_Baud_Rate_Calculation	;wreg free
  1757                           
  1758                           ;MCAL/usart/hal_usart.c: 33:         EUSART_ASYNC_TX_Init(_eusart);
  1759  002EB8  C045  F002         	movff	EUSART_ASYNC_Init@_eusart,EUSART_ASYNC_TX_Init@_eusart
  1760  002EBC  C046  F003         	movff	EUSART_ASYNC_Init@_eusart+1,EUSART_ASYNC_TX_Init@_eusart+1
  1761  002EC0  EC2B  F014         	call	_EUSART_ASYNC_TX_Init	;wreg free
  1762                           
  1763                           ;MCAL/usart/hal_usart.c: 34:         EUSART_ASYNC_RX_Init(_eusart);
  1764  002EC4  C045  F002         	movff	EUSART_ASYNC_Init@_eusart,EUSART_ASYNC_RX_Init@_eusart
  1765  002EC8  C046  F003         	movff	EUSART_ASYNC_Init@_eusart+1,EUSART_ASYNC_RX_Init@_eusart+1
  1766  002ECC  ECBD  F013         	call	_EUSART_ASYNC_RX_Init	;wreg free
  1767  002ED0                     
  1768                           ;MCAL/usart/hal_usart.c: 35:         RCSTAbits.SPEN = 1;
  1769  002ED0  8EAB               	bsf	171,7,c	;volatile
  1770  002ED2                     
  1771                           ;MCAL/usart/hal_usart.c: 36:         ret = (Std_ReturnType)0x01;
  1772  002ED2  0E01               	movlw	1
  1773  002ED4  6E47               	movwf	EUSART_ASYNC_Init@ret^0,c
  1774  002ED6                     l8015:
  1775                           
  1776                           ;MCAL/usart/hal_usart.c: 38:     return ret;
  1777  002ED6  5047               	movf	EUSART_ASYNC_Init@ret^0,w,c
  1778  002ED8  0012               	return		;funcret
  1779  002EDA                     __end_of_EUSART_ASYNC_Init:
  1780                           	callstack 0
  1781                           
  1782 ;; *************** function _EUSART_Baud_Rate_Calculation *****************
  1783 ;; Defined at:
  1784 ;;		line 170 in file "MCAL/usart/hal_usart.c"
  1785 ;; Parameters:    Size  Location     Type
  1786 ;;  _eusart         2   56[COMRAM] PTR const struct .
  1787 ;;		 -> usart_module_init@usart_obj(18), 
  1788 ;; Auto vars:     Size  Location     Type
  1789 ;;  Baud_Rate_Te    4   60[COMRAM] float 
  1790 ;; Return value:  Size  Location     Type
  1791 ;;                  1    wreg      void 
  1792 ;; Registers used:
  1793 ;;		wreg, fsr2l, fsr2h, status,2, status,0, cstack
  1794 ;; Tracked objects:
  1795 ;;		On entry : 0/0
  1796 ;;		On exit  : 0/0
  1797 ;;		Unchanged: 0/0
  1798 ;; Data sizes:     COMRAM   BANK0   BANK1   BANK2   BANK3   BANK4   BANK5   BANK6   BANK7   BANK8   BANK9  BANK10  BANK1
      +1  BANK12  BANK13  BANK14  BANK15
  1799 ;;      Params:         2       0       0       0       0       0       0       0       0       0       0       0       
      +0       0       0       0       0
  1800 ;;      Locals:         8       0       0       0       0       0       0       0       0       0       0       0       
      +0       0       0       0       0
  1801 ;;      Temps:          2       0       0       0       0       0       0       0       0       0       0       0       
      +0       0       0       0       0
  1802 ;;      Totals:        12       0       0       0       0       0       0       0       0       0       0       0       
      +0       0       0       0       0
  1803 ;;Total ram usage:       12 bytes
  1804 ;; Hardware stack levels used: 1
  1805 ;; Hardware stack levels required when called: 3
  1806 ;; This function calls:
  1807 ;;		___fladd
  1808 ;;		___fldiv
  1809 ;;		___fltol
  1810 ;;		___xxtofl
  1811 ;; This function is called by:
  1812 ;;		_EUSART_ASYNC_Init
  1813 ;; This function uses a non-reentrant model
  1814 ;;
  1815                           
  1816                           	psect	text9
  1817  00102E                     __ptext9:
  1818                           	callstack 0
  1819  00102E                     _EUSART_Baud_Rate_Calculation:
  1820                           	callstack 24
  1821  00102E                     
  1822                           ;MCAL/usart/hal_usart.c: 171:     float Baud_Rate_Temp = 0;
  1823  00102E  0E00               	movlw	0
  1824  001030  6E3D               	movwf	EUSART_Baud_Rate_Calculation@Baud_Rate_Temp^0,c
  1825  001032  0E00               	movlw	0
  1826  001034  6E3E               	movwf	(EUSART_Baud_Rate_Calculation@Baud_Rate_Temp+1)^0,c
  1827  001036  0E00               	movlw	0
  1828  001038  6E3F               	movwf	(EUSART_Baud_Rate_Calculation@Baud_Rate_Temp+2)^0,c
  1829  00103A  0E00               	movlw	0
  1830  00103C  6E40               	movwf	(EUSART_Baud_Rate_Calculation@Baud_Rate_Temp+3)^0,c
  1831                           
  1832                           ;MCAL/usart/hal_usart.c: 172:     switch(_eusart->baudrate_gen_gonfig){
  1833  00103E  EF3B  F00A         	goto	l7955
  1834  001042                     l1521:
  1835                           
  1836                           ;MCAL/usart/hal_usart.c: 174:             TXSTAbits.SYNC = 0;
  1837  001042  98AC               	bcf	172,4,c	;volatile
  1838                           
  1839                           ;MCAL/usart/hal_usart.c: 175:             TXSTAbits.BRGH = 0;
  1840  001044  94AC               	bcf	172,2,c	;volatile
  1841                           
  1842                           ;MCAL/usart/hal_usart.c: 176:             BAUDCONbits.BRG16 = 0;
  1843  001046  96B8               	bcf	184,3,c	;volatile
  1844  001048                     
  1845                           ;MCAL/usart/hal_usart.c: 177:             Baud_Rate_Temp = ((8000000UL / (float)_eusart-
      +                          >baudrate) / 64) - 1;
  1846  001048  C039  FFD9         	movff	EUSART_Baud_Rate_Calculation@_eusart,fsr2l
  1847  00104C  C03A  FFDA         	movff	EUSART_Baud_Rate_Calculation@_eusart+1,fsr2h
  1848  001050  CFDE F002          	movff	postinc2,___xxtofl@val
  1849  001054  CFDE F003          	movff	postinc2,___xxtofl@val+1
  1850  001058  CFDE F004          	movff	postinc2,___xxtofl@val+2
  1851  00105C  CFDE F005          	movff	postinc2,___xxtofl@val+3
  1852  001060  0E00               	movlw	0
  1853  001062  ECA6  F010         	call	___xxtofl
  1854  001066  C002  F014         	movff	?___xxtofl,___fldiv@a
  1855  00106A  C003  F015         	movff	?___xxtofl+1,___fldiv@a+1
  1856  00106E  C004  F016         	movff	?___xxtofl+2,___fldiv@a+2
  1857  001072  C005  F017         	movff	?___xxtofl+3,___fldiv@a+3
  1858  001076  0E00               	movlw	0
  1859  001078  6E10               	movwf	___fldiv@b^0,c
  1860  00107A  0E24               	movlw	36
  1861  00107C  6E11               	movwf	(___fldiv@b+1)^0,c
  1862  00107E  0EF4               	movlw	244
  1863  001080  6E12               	movwf	(___fldiv@b+2)^0,c
  1864  001082  0E4A               	movlw	74
  1865  001084  6E13               	movwf	(___fldiv@b+3)^0,c
  1866  001086  ECD9  F00E         	call	___fldiv	;wreg free
  1867  00108A  C010  F041         	movff	?___fldiv,_EUSART_Baud_Rate_Calculation$5085
  1868  00108E  C011  F042         	movff	?___fldiv+1,_EUSART_Baud_Rate_Calculation$5085+1
  1869  001092  C012  F043         	movff	?___fldiv+2,_EUSART_Baud_Rate_Calculation$5085+2
  1870  001096  C013  F044         	movff	?___fldiv+3,_EUSART_Baud_Rate_Calculation$5085+3
  1871  00109A                     
  1872                           ;MCAL/usart/hal_usart.c: 177:             Baud_Rate_Temp = ((8000000UL / (float)_eusart-
      +                          >baudrate) / 64) - 1;
  1873  00109A  0E00               	movlw	0
  1874  00109C  6E14               	movwf	___fldiv@a^0,c
  1875  00109E  0E00               	movlw	0
  1876  0010A0  6E15               	movwf	(___fldiv@a+1)^0,c
  1877  0010A2  0E80               	movlw	128
  1878  0010A4  6E16               	movwf	(___fldiv@a+2)^0,c
  1879  0010A6  0E42               	movlw	66
  1880  0010A8  6E17               	movwf	(___fldiv@a+3)^0,c
  1881  0010AA  C041  F010         	movff	_EUSART_Baud_Rate_Calculation$5085,___fldiv@b
  1882  0010AE  C042  F011         	movff	_EUSART_Baud_Rate_Calculation$5085+1,___fldiv@b+1
  1883  0010B2  C043  F012         	movff	_EUSART_Baud_Rate_Calculation$5085+2,___fldiv@b+2
  1884  0010B6  C044  F013         	movff	_EUSART_Baud_Rate_Calculation$5085+3,___fldiv@b+3
  1885  0010BA  ECD9  F00E         	call	___fldiv	;wreg free
  1886  0010BE  C010  F029         	movff	?___fldiv,___fladd@b
  1887  0010C2  C011  F02A         	movff	?___fldiv+1,___fladd@b+1
  1888  0010C6  C012  F02B         	movff	?___fldiv+2,___fladd@b+2
  1889  0010CA  C013  F02C         	movff	?___fldiv+3,___fladd@b+3
  1890  0010CE  0E00               	movlw	0
  1891  0010D0  6E2D               	movwf	___fladd@a^0,c
  1892  0010D2  0E00               	movlw	0
  1893  0010D4  6E2E               	movwf	(___fladd@a+1)^0,c
  1894  0010D6  0E80               	movlw	128
  1895  0010D8  6E2F               	movwf	(___fladd@a+2)^0,c
  1896  0010DA  0EBF               	movlw	191
  1897  0010DC  6E30               	movwf	(___fladd@a+3)^0,c
  1898  0010DE  EC86  F00A         	call	___fladd	;wreg free
  1899  0010E2  C029  F03D         	movff	?___fladd,EUSART_Baud_Rate_Calculation@Baud_Rate_Temp
  1900  0010E6  C02A  F03E         	movff	?___fladd+1,EUSART_Baud_Rate_Calculation@Baud_Rate_Temp+1
  1901  0010EA  C02B  F03F         	movff	?___fladd+2,EUSART_Baud_Rate_Calculation@Baud_Rate_Temp+2
  1902  0010EE  C02C  F040         	movff	?___fladd+3,EUSART_Baud_Rate_Calculation@Baud_Rate_Temp+3
  1903                           
  1904                           ;MCAL/usart/hal_usart.c: 178:             break;
  1905  0010F2  EF66  F00A         	goto	l7957
  1906  0010F6                     l1523:
  1907                           
  1908                           ;MCAL/usart/hal_usart.c: 180:             TXSTAbits.SYNC = 0;
  1909  0010F6  98AC               	bcf	172,4,c	;volatile
  1910                           
  1911                           ;MCAL/usart/hal_usart.c: 181:             TXSTAbits.BRGH = 1;
  1912  0010F8  84AC               	bsf	172,2,c	;volatile
  1913                           
  1914                           ;MCAL/usart/hal_usart.c: 182:             BAUDCONbits.BRG16 = 0;
  1915  0010FA  96B8               	bcf	184,3,c	;volatile
  1916  0010FC                     
  1917                           ;MCAL/usart/hal_usart.c: 183:             Baud_Rate_Temp = ((8000000UL / (float)_eusart-
      +                          >baudrate) / 16) - 1;
  1918  0010FC  C039  FFD9         	movff	EUSART_Baud_Rate_Calculation@_eusart,fsr2l
  1919  001100  C03A  FFDA         	movff	EUSART_Baud_Rate_Calculation@_eusart+1,fsr2h
  1920  001104  CFDE F002          	movff	postinc2,___xxtofl@val
  1921  001108  CFDE F003          	movff	postinc2,___xxtofl@val+1
  1922  00110C  CFDE F004          	movff	postinc2,___xxtofl@val+2
  1923  001110  CFDE F005          	movff	postinc2,___xxtofl@val+3
  1924  001114  0E00               	movlw	0
  1925  001116  ECA6  F010         	call	___xxtofl
  1926  00111A  C002  F014         	movff	?___xxtofl,___fldiv@a
  1927  00111E  C003  F015         	movff	?___xxtofl+1,___fldiv@a+1
  1928  001122  C004  F016         	movff	?___xxtofl+2,___fldiv@a+2
  1929  001126  C005  F017         	movff	?___xxtofl+3,___fldiv@a+3
  1930  00112A  0E00               	movlw	0
  1931  00112C  6E10               	movwf	___fldiv@b^0,c
  1932  00112E  0E24               	movlw	36
  1933  001130  6E11               	movwf	(___fldiv@b+1)^0,c
  1934  001132  0EF4               	movlw	244
  1935  001134  6E12               	movwf	(___fldiv@b+2)^0,c
  1936  001136  0E4A               	movlw	74
  1937  001138  6E13               	movwf	(___fldiv@b+3)^0,c
  1938  00113A  ECD9  F00E         	call	___fldiv	;wreg free
  1939  00113E  C010  F041         	movff	?___fldiv,_EUSART_Baud_Rate_Calculation$5085
  1940  001142  C011  F042         	movff	?___fldiv+1,_EUSART_Baud_Rate_Calculation$5085+1
  1941  001146  C012  F043         	movff	?___fldiv+2,_EUSART_Baud_Rate_Calculation$5085+2
  1942  00114A  C013  F044         	movff	?___fldiv+3,_EUSART_Baud_Rate_Calculation$5085+3
  1943  00114E                     
  1944                           ;MCAL/usart/hal_usart.c: 183:             Baud_Rate_Temp = ((8000000UL / (float)_eusart-
      +                          >baudrate) / 16) - 1;
  1945  00114E  0E00               	movlw	0
  1946  001150  6E14               	movwf	___fldiv@a^0,c
  1947  001152  0E00               	movlw	0
  1948  001154  6E15               	movwf	(___fldiv@a+1)^0,c
  1949  001156  0E80               	movlw	128
  1950  001158  6E16               	movwf	(___fldiv@a+2)^0,c
  1951  00115A  0E41               	movlw	65
  1952  00115C  6E17               	movwf	(___fldiv@a+3)^0,c
  1953  00115E  C041  F010         	movff	_EUSART_Baud_Rate_Calculation$5085,___fldiv@b
  1954  001162  C042  F011         	movff	_EUSART_Baud_Rate_Calculation$5085+1,___fldiv@b+1
  1955  001166  C043  F012         	movff	_EUSART_Baud_Rate_Calculation$5085+2,___fldiv@b+2
  1956  00116A  C044  F013         	movff	_EUSART_Baud_Rate_Calculation$5085+3,___fldiv@b+3
  1957  00116E  ECD9  F00E         	call	___fldiv	;wreg free
  1958  001172  C010  F029         	movff	?___fldiv,___fladd@b
  1959  001176  C011  F02A         	movff	?___fldiv+1,___fladd@b+1
  1960  00117A  C012  F02B         	movff	?___fldiv+2,___fladd@b+2
  1961  00117E  C013  F02C         	movff	?___fldiv+3,___fladd@b+3
  1962  001182  0E00               	movlw	0
  1963  001184  6E2D               	movwf	___fladd@a^0,c
  1964  001186  0E00               	movlw	0
  1965  001188  6E2E               	movwf	(___fladd@a+1)^0,c
  1966  00118A  0E80               	movlw	128
  1967  00118C  6E2F               	movwf	(___fladd@a+2)^0,c
  1968  00118E  0EBF               	movlw	191
  1969  001190  6E30               	movwf	(___fladd@a+3)^0,c
  1970  001192  EC86  F00A         	call	___fladd	;wreg free
  1971  001196  C029  F03D         	movff	?___fladd,EUSART_Baud_Rate_Calculation@Baud_Rate_Temp
  1972  00119A  C02A  F03E         	movff	?___fladd+1,EUSART_Baud_Rate_Calculation@Baud_Rate_Temp+1
  1973  00119E  C02B  F03F         	movff	?___fladd+2,EUSART_Baud_Rate_Calculation@Baud_Rate_Temp+2
  1974  0011A2  C02C  F040         	movff	?___fladd+3,EUSART_Baud_Rate_Calculation@Baud_Rate_Temp+3
  1975                           
  1976                           ;MCAL/usart/hal_usart.c: 184:             break;
  1977  0011A6  EF66  F00A         	goto	l7957
  1978  0011AA                     l1524:
  1979                           
  1980                           ;MCAL/usart/hal_usart.c: 186:             TXSTAbits.SYNC = 0;
  1981  0011AA  98AC               	bcf	172,4,c	;volatile
  1982                           
  1983                           ;MCAL/usart/hal_usart.c: 187:             TXSTAbits.BRGH = 0;
  1984  0011AC  94AC               	bcf	172,2,c	;volatile
  1985                           
  1986                           ;MCAL/usart/hal_usart.c: 188:             BAUDCONbits.BRG16 = 1;
  1987  0011AE  86B8               	bsf	184,3,c	;volatile
  1988  0011B0                     
  1989                           ;MCAL/usart/hal_usart.c: 189:             Baud_Rate_Temp = ((8000000UL / (float)_eusart-
      +                          >baudrate) / 16) - 1;
  1990  0011B0  C039  FFD9         	movff	EUSART_Baud_Rate_Calculation@_eusart,fsr2l
  1991  0011B4  C03A  FFDA         	movff	EUSART_Baud_Rate_Calculation@_eusart+1,fsr2h
  1992  0011B8  CFDE F002          	movff	postinc2,___xxtofl@val
  1993  0011BC  CFDE F003          	movff	postinc2,___xxtofl@val+1
  1994  0011C0  CFDE F004          	movff	postinc2,___xxtofl@val+2
  1995  0011C4  CFDE F005          	movff	postinc2,___xxtofl@val+3
  1996  0011C8  0E00               	movlw	0
  1997  0011CA  ECA6  F010         	call	___xxtofl
  1998  0011CE  C002  F014         	movff	?___xxtofl,___fldiv@a
  1999  0011D2  C003  F015         	movff	?___xxtofl+1,___fldiv@a+1
  2000  0011D6  C004  F016         	movff	?___xxtofl+2,___fldiv@a+2
  2001  0011DA  C005  F017         	movff	?___xxtofl+3,___fldiv@a+3
  2002  0011DE  0E00               	movlw	0
  2003  0011E0  6E10               	movwf	___fldiv@b^0,c
  2004  0011E2  0E24               	movlw	36
  2005  0011E4  6E11               	movwf	(___fldiv@b+1)^0,c
  2006  0011E6  0EF4               	movlw	244
  2007  0011E8  6E12               	movwf	(___fldiv@b+2)^0,c
  2008  0011EA  0E4A               	movlw	74
  2009  0011EC  6E13               	movwf	(___fldiv@b+3)^0,c
  2010  0011EE  ECD9  F00E         	call	___fldiv	;wreg free
  2011  0011F2  C010  F041         	movff	?___fldiv,_EUSART_Baud_Rate_Calculation$5085
  2012  0011F6  C011  F042         	movff	?___fldiv+1,_EUSART_Baud_Rate_Calculation$5085+1
  2013  0011FA  C012  F043         	movff	?___fldiv+2,_EUSART_Baud_Rate_Calculation$5085+2
  2014  0011FE  C013  F044         	movff	?___fldiv+3,_EUSART_Baud_Rate_Calculation$5085+3
  2015  001202                     
  2016                           ;MCAL/usart/hal_usart.c: 189:             Baud_Rate_Temp = ((8000000UL / (float)_eusart-
      +                          >baudrate) / 16) - 1;
  2017  001202  0E00               	movlw	0
  2018  001204  6E14               	movwf	___fldiv@a^0,c
  2019  001206  0E00               	movlw	0
  2020  001208  6E15               	movwf	(___fldiv@a+1)^0,c
  2021  00120A  0E80               	movlw	128
  2022  00120C  6E16               	movwf	(___fldiv@a+2)^0,c
  2023  00120E  0E41               	movlw	65
  2024  001210  6E17               	movwf	(___fldiv@a+3)^0,c
  2025  001212  C041  F010         	movff	_EUSART_Baud_Rate_Calculation$5085,___fldiv@b
  2026  001216  C042  F011         	movff	_EUSART_Baud_Rate_Calculation$5085+1,___fldiv@b+1
  2027  00121A  C043  F012         	movff	_EUSART_Baud_Rate_Calculation$5085+2,___fldiv@b+2
  2028  00121E  C044  F013         	movff	_EUSART_Baud_Rate_Calculation$5085+3,___fldiv@b+3
  2029  001222  ECD9  F00E         	call	___fldiv	;wreg free
  2030  001226  C010  F029         	movff	?___fldiv,___fladd@b
  2031  00122A  C011  F02A         	movff	?___fldiv+1,___fladd@b+1
  2032  00122E  C012  F02B         	movff	?___fldiv+2,___fladd@b+2
  2033  001232  C013  F02C         	movff	?___fldiv+3,___fladd@b+3
  2034  001236  0E00               	movlw	0
  2035  001238  6E2D               	movwf	___fladd@a^0,c
  2036  00123A  0E00               	movlw	0
  2037  00123C  6E2E               	movwf	(___fladd@a+1)^0,c
  2038  00123E  0E80               	movlw	128
  2039  001240  6E2F               	movwf	(___fladd@a+2)^0,c
  2040  001242  0EBF               	movlw	191
  2041  001244  6E30               	movwf	(___fladd@a+3)^0,c
  2042  001246  EC86  F00A         	call	___fladd	;wreg free
  2043  00124A  C029  F03D         	movff	?___fladd,EUSART_Baud_Rate_Calculation@Baud_Rate_Temp
  2044  00124E  C02A  F03E         	movff	?___fladd+1,EUSART_Baud_Rate_Calculation@Baud_Rate_Temp+1
  2045  001252  C02B  F03F         	movff	?___fladd+2,EUSART_Baud_Rate_Calculation@Baud_Rate_Temp+2
  2046  001256  C02C  F040         	movff	?___fladd+3,EUSART_Baud_Rate_Calculation@Baud_Rate_Temp+3
  2047                           
  2048                           ;MCAL/usart/hal_usart.c: 190:             break;
  2049  00125A  EF66  F00A         	goto	l7957
  2050  00125E                     l1525:
  2051                           
  2052                           ;MCAL/usart/hal_usart.c: 192:             TXSTAbits.SYNC = 0;
  2053  00125E  98AC               	bcf	172,4,c	;volatile
  2054                           
  2055                           ;MCAL/usart/hal_usart.c: 193:             TXSTAbits.BRGH = 1;
  2056  001260  84AC               	bsf	172,2,c	;volatile
  2057                           
  2058                           ;MCAL/usart/hal_usart.c: 194:             BAUDCONbits.BRG16 = 1;
  2059  001262  86B8               	bsf	184,3,c	;volatile
  2060  001264                     
  2061                           ;MCAL/usart/hal_usart.c: 195:             Baud_Rate_Temp = ((8000000UL / (float)_eusart-
      +                          >baudrate) / 4) - 1;
  2062  001264  C039  FFD9         	movff	EUSART_Baud_Rate_Calculation@_eusart,fsr2l
  2063  001268  C03A  FFDA         	movff	EUSART_Baud_Rate_Calculation@_eusart+1,fsr2h
  2064  00126C  CFDE F002          	movff	postinc2,___xxtofl@val
  2065  001270  CFDE F003          	movff	postinc2,___xxtofl@val+1
  2066  001274  CFDE F004          	movff	postinc2,___xxtofl@val+2
  2067  001278  CFDE F005          	movff	postinc2,___xxtofl@val+3
  2068  00127C  0E00               	movlw	0
  2069  00127E  ECA6  F010         	call	___xxtofl
  2070  001282  C002  F014         	movff	?___xxtofl,___fldiv@a
  2071  001286  C003  F015         	movff	?___xxtofl+1,___fldiv@a+1
  2072  00128A  C004  F016         	movff	?___xxtofl+2,___fldiv@a+2
  2073  00128E  C005  F017         	movff	?___xxtofl+3,___fldiv@a+3
  2074  001292  0E00               	movlw	0
  2075  001294  6E10               	movwf	___fldiv@b^0,c
  2076  001296  0E24               	movlw	36
  2077  001298  6E11               	movwf	(___fldiv@b+1)^0,c
  2078  00129A  0EF4               	movlw	244
  2079  00129C  6E12               	movwf	(___fldiv@b+2)^0,c
  2080  00129E  0E4A               	movlw	74
  2081  0012A0  6E13               	movwf	(___fldiv@b+3)^0,c
  2082  0012A2  ECD9  F00E         	call	___fldiv	;wreg free
  2083  0012A6  C010  F041         	movff	?___fldiv,_EUSART_Baud_Rate_Calculation$5085
  2084  0012AA  C011  F042         	movff	?___fldiv+1,_EUSART_Baud_Rate_Calculation$5085+1
  2085  0012AE  C012  F043         	movff	?___fldiv+2,_EUSART_Baud_Rate_Calculation$5085+2
  2086  0012B2  C013  F044         	movff	?___fldiv+3,_EUSART_Baud_Rate_Calculation$5085+3
  2087  0012B6                     
  2088                           ;MCAL/usart/hal_usart.c: 195:             Baud_Rate_Temp = ((8000000UL / (float)_eusart-
      +                          >baudrate) / 4) - 1;
  2089  0012B6  0E00               	movlw	0
  2090  0012B8  6E14               	movwf	___fldiv@a^0,c
  2091  0012BA  0E00               	movlw	0
  2092  0012BC  6E15               	movwf	(___fldiv@a+1)^0,c
  2093  0012BE  0E80               	movlw	128
  2094  0012C0  6E16               	movwf	(___fldiv@a+2)^0,c
  2095  0012C2  0E40               	movlw	64
  2096  0012C4  6E17               	movwf	(___fldiv@a+3)^0,c
  2097  0012C6  C041  F010         	movff	_EUSART_Baud_Rate_Calculation$5085,___fldiv@b
  2098  0012CA  C042  F011         	movff	_EUSART_Baud_Rate_Calculation$5085+1,___fldiv@b+1
  2099  0012CE  C043  F012         	movff	_EUSART_Baud_Rate_Calculation$5085+2,___fldiv@b+2
  2100  0012D2  C044  F013         	movff	_EUSART_Baud_Rate_Calculation$5085+3,___fldiv@b+3
  2101  0012D6  ECD9  F00E         	call	___fldiv	;wreg free
  2102  0012DA  C010  F029         	movff	?___fldiv,___fladd@b
  2103  0012DE  C011  F02A         	movff	?___fldiv+1,___fladd@b+1
  2104  0012E2  C012  F02B         	movff	?___fldiv+2,___fladd@b+2
  2105  0012E6  C013  F02C         	movff	?___fldiv+3,___fladd@b+3
  2106  0012EA  0E00               	movlw	0
  2107  0012EC  6E2D               	movwf	___fladd@a^0,c
  2108  0012EE  0E00               	movlw	0
  2109  0012F0  6E2E               	movwf	(___fladd@a+1)^0,c
  2110  0012F2  0E80               	movlw	128
  2111  0012F4  6E2F               	movwf	(___fladd@a+2)^0,c
  2112  0012F6  0EBF               	movlw	191
  2113  0012F8  6E30               	movwf	(___fladd@a+3)^0,c
  2114  0012FA  EC86  F00A         	call	___fladd	;wreg free
  2115  0012FE  C029  F03D         	movff	?___fladd,EUSART_Baud_Rate_Calculation@Baud_Rate_Temp
  2116  001302  C02A  F03E         	movff	?___fladd+1,EUSART_Baud_Rate_Calculation@Baud_Rate_Temp+1
  2117  001306  C02B  F03F         	movff	?___fladd+2,EUSART_Baud_Rate_Calculation@Baud_Rate_Temp+2
  2118  00130A  C02C  F040         	movff	?___fladd+3,EUSART_Baud_Rate_Calculation@Baud_Rate_Temp+3
  2119                           
  2120                           ;MCAL/usart/hal_usart.c: 196:             break;
  2121  00130E  EF66  F00A         	goto	l7957
  2122  001312                     l1526:
  2123                           
  2124                           ;MCAL/usart/hal_usart.c: 198:             TXSTAbits.SYNC = 1;
  2125  001312  88AC               	bsf	172,4,c	;volatile
  2126                           
  2127                           ;MCAL/usart/hal_usart.c: 199:             BAUDCONbits.BRG16 = 0;
  2128  001314  96B8               	bcf	184,3,c	;volatile
  2129  001316                     
  2130                           ;MCAL/usart/hal_usart.c: 200:             Baud_Rate_Temp = ((8000000UL / (float)_eusart-
      +                          >baudrate) / 4) - 1;
  2131  001316  C039  FFD9         	movff	EUSART_Baud_Rate_Calculation@_eusart,fsr2l
  2132  00131A  C03A  FFDA         	movff	EUSART_Baud_Rate_Calculation@_eusart+1,fsr2h
  2133  00131E  CFDE F002          	movff	postinc2,___xxtofl@val
  2134  001322  CFDE F003          	movff	postinc2,___xxtofl@val+1
  2135  001326  CFDE F004          	movff	postinc2,___xxtofl@val+2
  2136  00132A  CFDE F005          	movff	postinc2,___xxtofl@val+3
  2137  00132E  0E00               	movlw	0
  2138  001330  ECA6  F010         	call	___xxtofl
  2139  001334  C002  F014         	movff	?___xxtofl,___fldiv@a
  2140  001338  C003  F015         	movff	?___xxtofl+1,___fldiv@a+1
  2141  00133C  C004  F016         	movff	?___xxtofl+2,___fldiv@a+2
  2142  001340  C005  F017         	movff	?___xxtofl+3,___fldiv@a+3
  2143  001344  0E00               	movlw	0
  2144  001346  6E10               	movwf	___fldiv@b^0,c
  2145  001348  0E24               	movlw	36
  2146  00134A  6E11               	movwf	(___fldiv@b+1)^0,c
  2147  00134C  0EF4               	movlw	244
  2148  00134E  6E12               	movwf	(___fldiv@b+2)^0,c
  2149  001350  0E4A               	movlw	74
  2150  001352  6E13               	movwf	(___fldiv@b+3)^0,c
  2151  001354  ECD9  F00E         	call	___fldiv	;wreg free
  2152  001358  C010  F041         	movff	?___fldiv,_EUSART_Baud_Rate_Calculation$5085
  2153  00135C  C011  F042         	movff	?___fldiv+1,_EUSART_Baud_Rate_Calculation$5085+1
  2154  001360  C012  F043         	movff	?___fldiv+2,_EUSART_Baud_Rate_Calculation$5085+2
  2155  001364  C013  F044         	movff	?___fldiv+3,_EUSART_Baud_Rate_Calculation$5085+3
  2156  001368                     
  2157                           ;MCAL/usart/hal_usart.c: 200:             Baud_Rate_Temp = ((8000000UL / (float)_eusart-
      +                          >baudrate) / 4) - 1;
  2158  001368  0E00               	movlw	0
  2159  00136A  6E14               	movwf	___fldiv@a^0,c
  2160  00136C  0E00               	movlw	0
  2161  00136E  6E15               	movwf	(___fldiv@a+1)^0,c
  2162  001370  0E80               	movlw	128
  2163  001372  6E16               	movwf	(___fldiv@a+2)^0,c
  2164  001374  0E40               	movlw	64
  2165  001376  6E17               	movwf	(___fldiv@a+3)^0,c
  2166  001378  C041  F010         	movff	_EUSART_Baud_Rate_Calculation$5085,___fldiv@b
  2167  00137C  C042  F011         	movff	_EUSART_Baud_Rate_Calculation$5085+1,___fldiv@b+1
  2168  001380  C043  F012         	movff	_EUSART_Baud_Rate_Calculation$5085+2,___fldiv@b+2
  2169  001384  C044  F013         	movff	_EUSART_Baud_Rate_Calculation$5085+3,___fldiv@b+3
  2170  001388  ECD9  F00E         	call	___fldiv	;wreg free
  2171  00138C  C010  F029         	movff	?___fldiv,___fladd@b
  2172  001390  C011  F02A         	movff	?___fldiv+1,___fladd@b+1
  2173  001394  C012  F02B         	movff	?___fldiv+2,___fladd@b+2
  2174  001398  C013  F02C         	movff	?___fldiv+3,___fladd@b+3
  2175  00139C  0E00               	movlw	0
  2176  00139E  6E2D               	movwf	___fladd@a^0,c
  2177  0013A0  0E00               	movlw	0
  2178  0013A2  6E2E               	movwf	(___fladd@a+1)^0,c
  2179  0013A4  0E80               	movlw	128
  2180  0013A6  6E2F               	movwf	(___fladd@a+2)^0,c
  2181  0013A8  0EBF               	movlw	191
  2182  0013AA  6E30               	movwf	(___fladd@a+3)^0,c
  2183  0013AC  EC86  F00A         	call	___fladd	;wreg free
  2184  0013B0  C029  F03D         	movff	?___fladd,EUSART_Baud_Rate_Calculation@Baud_Rate_Temp
  2185  0013B4  C02A  F03E         	movff	?___fladd+1,EUSART_Baud_Rate_Calculation@Baud_Rate_Temp+1
  2186  0013B8  C02B  F03F         	movff	?___fladd+2,EUSART_Baud_Rate_Calculation@Baud_Rate_Temp+2
  2187  0013BC  C02C  F040         	movff	?___fladd+3,EUSART_Baud_Rate_Calculation@Baud_Rate_Temp+3
  2188                           
  2189                           ;MCAL/usart/hal_usart.c: 201:             break;
  2190  0013C0  EF66  F00A         	goto	l7957
  2191  0013C4                     l1527:
  2192                           
  2193                           ;MCAL/usart/hal_usart.c: 203:             TXSTAbits.SYNC = 1;
  2194  0013C4  88AC               	bsf	172,4,c	;volatile
  2195                           
  2196                           ;MCAL/usart/hal_usart.c: 204:             BAUDCONbits.BRG16 = 1;
  2197  0013C6  86B8               	bsf	184,3,c	;volatile
  2198  0013C8                     
  2199                           ;MCAL/usart/hal_usart.c: 205:             Baud_Rate_Temp = ((8000000UL / (float)_eusart-
      +                          >baudrate) / 4) - 1;
  2200  0013C8  C039  FFD9         	movff	EUSART_Baud_Rate_Calculation@_eusart,fsr2l
  2201  0013CC  C03A  FFDA         	movff	EUSART_Baud_Rate_Calculation@_eusart+1,fsr2h
  2202  0013D0  CFDE F002          	movff	postinc2,___xxtofl@val
  2203  0013D4  CFDE F003          	movff	postinc2,___xxtofl@val+1
  2204  0013D8  CFDE F004          	movff	postinc2,___xxtofl@val+2
  2205  0013DC  CFDE F005          	movff	postinc2,___xxtofl@val+3
  2206  0013E0  0E00               	movlw	0
  2207  0013E2  ECA6  F010         	call	___xxtofl
  2208  0013E6  C002  F014         	movff	?___xxtofl,___fldiv@a
  2209  0013EA  C003  F015         	movff	?___xxtofl+1,___fldiv@a+1
  2210  0013EE  C004  F016         	movff	?___xxtofl+2,___fldiv@a+2
  2211  0013F2  C005  F017         	movff	?___xxtofl+3,___fldiv@a+3
  2212  0013F6  0E00               	movlw	0
  2213  0013F8  6E10               	movwf	___fldiv@b^0,c
  2214  0013FA  0E24               	movlw	36
  2215  0013FC  6E11               	movwf	(___fldiv@b+1)^0,c
  2216  0013FE  0EF4               	movlw	244
  2217  001400  6E12               	movwf	(___fldiv@b+2)^0,c
  2218  001402  0E4A               	movlw	74
  2219  001404  6E13               	movwf	(___fldiv@b+3)^0,c
  2220  001406  ECD9  F00E         	call	___fldiv	;wreg free
  2221  00140A  C010  F041         	movff	?___fldiv,_EUSART_Baud_Rate_Calculation$5085
  2222  00140E  C011  F042         	movff	?___fldiv+1,_EUSART_Baud_Rate_Calculation$5085+1
  2223  001412  C012  F043         	movff	?___fldiv+2,_EUSART_Baud_Rate_Calculation$5085+2
  2224  001416  C013  F044         	movff	?___fldiv+3,_EUSART_Baud_Rate_Calculation$5085+3
  2225  00141A                     
  2226                           ;MCAL/usart/hal_usart.c: 205:             Baud_Rate_Temp = ((8000000UL / (float)_eusart-
      +                          >baudrate) / 4) - 1;
  2227  00141A  0E00               	movlw	0
  2228  00141C  6E14               	movwf	___fldiv@a^0,c
  2229  00141E  0E00               	movlw	0
  2230  001420  6E15               	movwf	(___fldiv@a+1)^0,c
  2231  001422  0E80               	movlw	128
  2232  001424  6E16               	movwf	(___fldiv@a+2)^0,c
  2233  001426  0E40               	movlw	64
  2234  001428  6E17               	movwf	(___fldiv@a+3)^0,c
  2235  00142A  C041  F010         	movff	_EUSART_Baud_Rate_Calculation$5085,___fldiv@b
  2236  00142E  C042  F011         	movff	_EUSART_Baud_Rate_Calculation$5085+1,___fldiv@b+1
  2237  001432  C043  F012         	movff	_EUSART_Baud_Rate_Calculation$5085+2,___fldiv@b+2
  2238  001436  C044  F013         	movff	_EUSART_Baud_Rate_Calculation$5085+3,___fldiv@b+3
  2239  00143A  ECD9  F00E         	call	___fldiv	;wreg free
  2240  00143E  C010  F029         	movff	?___fldiv,___fladd@b
  2241  001442  C011  F02A         	movff	?___fldiv+1,___fladd@b+1
  2242  001446  C012  F02B         	movff	?___fldiv+2,___fladd@b+2
  2243  00144A  C013  F02C         	movff	?___fldiv+3,___fladd@b+3
  2244  00144E  0E00               	movlw	0
  2245  001450  6E2D               	movwf	___fladd@a^0,c
  2246  001452  0E00               	movlw	0
  2247  001454  6E2E               	movwf	(___fladd@a+1)^0,c
  2248  001456  0E80               	movlw	128
  2249  001458  6E2F               	movwf	(___fladd@a+2)^0,c
  2250  00145A  0EBF               	movlw	191
  2251  00145C  6E30               	movwf	(___fladd@a+3)^0,c
  2252  00145E  EC86  F00A         	call	___fladd	;wreg free
  2253  001462  C029  F03D         	movff	?___fladd,EUSART_Baud_Rate_Calculation@Baud_Rate_Temp
  2254  001466  C02A  F03E         	movff	?___fladd+1,EUSART_Baud_Rate_Calculation@Baud_Rate_Temp+1
  2255  00146A  C02B  F03F         	movff	?___fladd+2,EUSART_Baud_Rate_Calculation@Baud_Rate_Temp+2
  2256  00146E  C02C  F040         	movff	?___fladd+3,EUSART_Baud_Rate_Calculation@Baud_Rate_Temp+3
  2257                           
  2258                           ;MCAL/usart/hal_usart.c: 206:             break;
  2259  001472  EF66  F00A         	goto	l7957
  2260  001476                     l7955:
  2261  001476  EE20 F004          	lfsr	2,4
  2262  00147A  5039               	movf	EUSART_Baud_Rate_Calculation@_eusart^0,w,c
  2263  00147C  26D9               	addwf	fsr2l,f,c
  2264  00147E  503A               	movf	(EUSART_Baud_Rate_Calculation@_eusart+1)^0,w,c
  2265  001480  22DA               	addwfc	fsr2h,f,c
  2266  001482  50DF               	movf	indf2,w,c
  2267  001484  6E3B               	movwf	??_EUSART_Baud_Rate_Calculation^0,c
  2268  001486  6A3C               	clrf	(??_EUSART_Baud_Rate_Calculation+1)^0,c
  2269                           
  2270                           ; Switch on 2 bytes has been partitioned into a top level switch of size 1, and 1 sub-sw
      +                          itches
  2271                           ; Switch size 1, requested type "simple"
  2272                           ; Number of cases is 1, Range of values is 0 to 0
  2273                           ; switch strategies available:
  2274                           ; Name         Instructions Cycles
  2275                           ; simple_byte            4     3 (average)
  2276                           ;	Chosen strategy is simple_byte
  2277  001488  503C               	movf	(??_EUSART_Baud_Rate_Calculation+1)^0,w,c
  2278  00148A  0A00               	xorlw	0	; case 0
  2279  00148C  B4D8               	btfsc	status,2,c
  2280  00148E  EF4B  F00A         	goto	l8207
  2281  001492  EF66  F00A         	goto	l7957
  2282  001496                     l8207:
  2283                           
  2284                           ; Switch size 1, requested type "simple"
  2285                           ; Number of cases is 6, Range of values is 0 to 5
  2286                           ; switch strategies available:
  2287                           ; Name         Instructions Cycles
  2288                           ; simple_byte           19    10 (average)
  2289                           ;	Chosen strategy is simple_byte
  2290  001496  503B               	movf	??_EUSART_Baud_Rate_Calculation^0,w,c
  2291  001498  0A00               	xorlw	0	; case 0
  2292  00149A  B4D8               	btfsc	status,2,c
  2293  00149C  EF21  F008         	goto	l1521
  2294  0014A0  0A01               	xorlw	1	; case 1
  2295  0014A2  B4D8               	btfsc	status,2,c
  2296  0014A4  EF7B  F008         	goto	l1523
  2297  0014A8  0A03               	xorlw	3	; case 2
  2298  0014AA  B4D8               	btfsc	status,2,c
  2299  0014AC  EFD5  F008         	goto	l1524
  2300  0014B0  0A01               	xorlw	1	; case 3
  2301  0014B2  B4D8               	btfsc	status,2,c
  2302  0014B4  EF2F  F009         	goto	l1525
  2303  0014B8  0A07               	xorlw	7	; case 4
  2304  0014BA  B4D8               	btfsc	status,2,c
  2305  0014BC  EF89  F009         	goto	l1526
  2306  0014C0  0A01               	xorlw	1	; case 5
  2307  0014C2  B4D8               	btfsc	status,2,c
  2308  0014C4  EFE2  F009         	goto	l1527
  2309  0014C8  EF66  F00A         	goto	l7957
  2310  0014CC                     l7957:
  2311                           
  2312                           ;MCAL/usart/hal_usart.c: 209:     SPBRG = (uint8)((uint32)Baud_Rate_Temp);
  2313  0014CC  C03D  F002         	movff	EUSART_Baud_Rate_Calculation@Baud_Rate_Temp,___fltol@f1
  2314  0014D0  C03E  F003         	movff	EUSART_Baud_Rate_Calculation@Baud_Rate_Temp+1,___fltol@f1+1
  2315  0014D4  C03F  F004         	movff	EUSART_Baud_Rate_Calculation@Baud_Rate_Temp+2,___fltol@f1+2
  2316  0014D8  C040  F005         	movff	EUSART_Baud_Rate_Calculation@Baud_Rate_Temp+3,___fltol@f1+3
  2317  0014DC  ECB8  F012         	call	___fltol	;wreg free
  2318  0014E0  5002               	movf	?___fltol^0,w,c
  2319  0014E2  6EAF               	movwf	175,c	;volatile
  2320                           
  2321                           ;MCAL/usart/hal_usart.c: 210:     SPBRGH = (uint8)(((uint32)Baud_Rate_Temp) >> 8);
  2322  0014E4  C03D  F002         	movff	EUSART_Baud_Rate_Calculation@Baud_Rate_Temp,___fltol@f1
  2323  0014E8  C03E  F003         	movff	EUSART_Baud_Rate_Calculation@Baud_Rate_Temp+1,___fltol@f1+1
  2324  0014EC  C03F  F004         	movff	EUSART_Baud_Rate_Calculation@Baud_Rate_Temp+2,___fltol@f1+2
  2325  0014F0  C040  F005         	movff	EUSART_Baud_Rate_Calculation@Baud_Rate_Temp+3,___fltol@f1+3
  2326  0014F4  ECB8  F012         	call	___fltol	;wreg free
  2327  0014F8  C003  F002         	movff	?___fltol+1,?___fltol
  2328  0014FC  C004  F003         	movff	?___fltol+2,?___fltol+1
  2329  001500  C005  F004         	movff	?___fltol+3,?___fltol+2
  2330  001504  6A05               	clrf	(?___fltol+3)^0,c
  2331  001506  5002               	movf	?___fltol^0,w,c
  2332  001508  6EB0               	movwf	176,c	;volatile
  2333  00150A  0012               	return		;funcret
  2334  00150C                     __end_of_EUSART_Baud_Rate_Calculation:
  2335                           	callstack 0
  2336                           
  2337 ;; *************** function ___xxtofl *****************
  2338 ;; Defined at:
  2339 ;;		line 10 in file "C:\Program Files\Microchip\xc8\v2.36\pic\sources\c99\common\xxtofl.c"
  2340 ;; Parameters:    Size  Location     Type
  2341 ;;  sign            1    wreg     unsigned char 
  2342 ;;  val             4    1[COMRAM] long 
  2343 ;; Auto vars:     Size  Location     Type
  2344 ;;  sign            1    9[COMRAM] unsigned char 
  2345 ;;  arg             4   11[COMRAM] unsigned long 
  2346 ;;  exp             1   10[COMRAM] unsigned char 
  2347 ;; Return value:  Size  Location     Type
  2348 ;;                  4    1[COMRAM] unsigned char 
  2349 ;; Registers used:
  2350 ;;		wreg, status,2, status,0
  2351 ;; Tracked objects:
  2352 ;;		On entry : 0/0
  2353 ;;		On exit  : 0/0
  2354 ;;		Unchanged: 0/0
  2355 ;; Data sizes:     COMRAM   BANK0   BANK1   BANK2   BANK3   BANK4   BANK5   BANK6   BANK7   BANK8   BANK9  BANK10  BANK1
      +1  BANK12  BANK13  BANK14  BANK15
  2356 ;;      Params:         4       0       0       0       0       0       0       0       0       0       0       0       
      +0       0       0       0       0
  2357 ;;      Locals:         6       0       0       0       0       0       0       0       0       0       0       0       
      +0       0       0       0       0
  2358 ;;      Temps:          4       0       0       0       0       0       0       0       0       0       0       0       
      +0       0       0       0       0
  2359 ;;      Totals:        14       0       0       0       0       0       0       0       0       0       0       0       
      +0       0       0       0       0
  2360 ;;Total ram usage:       14 bytes
  2361 ;; Hardware stack levels used: 1
  2362 ;; Hardware stack levels required when called: 2
  2363 ;; This function calls:
  2364 ;;		Nothing
  2365 ;; This function is called by:
  2366 ;;		_EUSART_Baud_Rate_Calculation
  2367 ;;		_I2C_Master_Mode_Clock_Configurations
  2368 ;; This function uses a non-reentrant model
  2369 ;;
  2370                           
  2371                           	psect	text10
  2372  00214C                     __ptext10:
  2373                           	callstack 0
  2374  00214C                     ___xxtofl:
  2375                           	callstack 24
  2376                           
  2377                           ;incstack = 0
  2378                           ;___xxtofl@sign stored from wreg
  2379  00214C  6E0A               	movwf	___xxtofl@sign^0,c
  2380  00214E  500A               	movf	___xxtofl@sign^0,w,c
  2381  002150  B4D8               	btfsc	status,2,c
  2382  002152  EFAD  F010         	goto	u7571
  2383  002156  EFAF  F010         	goto	u7570
  2384  00215A                     u7571:
  2385  00215A  EFD1  F010         	goto	l2284
  2386  00215E                     u7570:
  2387  00215E  BE05               	btfsc	(___xxtofl@val+3)^0,7,c
  2388  002160  EFB6  F010         	goto	u7580
  2389  002164  EFB4  F010         	goto	u7581
  2390  002168                     u7581:
  2391  002168  EFD1  F010         	goto	l2284
  2392  00216C                     u7580:
  2393  00216C  C002  F006         	movff	___xxtofl@val,??___xxtofl
  2394  002170  C003  F007         	movff	___xxtofl@val+1,??___xxtofl+1
  2395  002174  C004  F008         	movff	___xxtofl@val+2,??___xxtofl+2
  2396  002178  C005  F009         	movff	___xxtofl@val+3,??___xxtofl+3
  2397  00217C  1E06               	comf	??___xxtofl^0,f,c
  2398  00217E  1E07               	comf	(??___xxtofl+1)^0,f,c
  2399  002180  1E08               	comf	(??___xxtofl+2)^0,f,c
  2400  002182  1E09               	comf	(??___xxtofl+3)^0,f,c
  2401  002184  2A06               	incf	??___xxtofl^0,f,c
  2402  002186  0E00               	movlw	0
  2403  002188  2207               	addwfc	(??___xxtofl+1)^0,f,c
  2404  00218A  2208               	addwfc	(??___xxtofl+2)^0,f,c
  2405  00218C  2209               	addwfc	(??___xxtofl+3)^0,f,c
  2406  00218E  C006  F00C         	movff	??___xxtofl,___xxtofl@arg
  2407  002192  C007  F00D         	movff	??___xxtofl+1,___xxtofl@arg+1
  2408  002196  C008  F00E         	movff	??___xxtofl+2,___xxtofl@arg+2
  2409  00219A  C009  F00F         	movff	??___xxtofl+3,___xxtofl@arg+3
  2410  00219E  EFD9  F010         	goto	l7889
  2411  0021A2                     l2284:
  2412  0021A2  C002  F00C         	movff	___xxtofl@val,___xxtofl@arg
  2413  0021A6  C003  F00D         	movff	___xxtofl@val+1,___xxtofl@arg+1
  2414  0021AA  C004  F00E         	movff	___xxtofl@val+2,___xxtofl@arg+2
  2415  0021AE  C005  F00F         	movff	___xxtofl@val+3,___xxtofl@arg+3
  2416  0021B2                     l7889:
  2417  0021B2  5002               	movf	___xxtofl@val^0,w,c
  2418  0021B4  1003               	iorwf	(___xxtofl@val+1)^0,w,c
  2419  0021B6  1004               	iorwf	(___xxtofl@val+2)^0,w,c
  2420  0021B8  1005               	iorwf	(___xxtofl@val+3)^0,w,c
  2421  0021BA  A4D8               	btfss	status,2,c
  2422  0021BC  EFE2  F010         	goto	u7591
  2423  0021C0  EFE4  F010         	goto	u7590
  2424  0021C4                     u7591:
  2425  0021C4  EFEE  F010         	goto	l7895
  2426  0021C8                     u7590:
  2427  0021C8  0E00               	movlw	0
  2428  0021CA  6E02               	movwf	?___xxtofl^0,c
  2429  0021CC  0E00               	movlw	0
  2430  0021CE  6E03               	movwf	(?___xxtofl+1)^0,c
  2431  0021D0  0E00               	movlw	0
  2432  0021D2  6E04               	movwf	(?___xxtofl+2)^0,c
  2433  0021D4  0E00               	movlw	0
  2434  0021D6  6E05               	movwf	(?___xxtofl+3)^0,c
  2435  0021D8  EF7F  F011         	goto	l2287
  2436  0021DC                     l7895:
  2437  0021DC  0E96               	movlw	150
  2438  0021DE  6E0B               	movwf	___xxtofl@exp^0,c
  2439  0021E0  EFF8  F010         	goto	l7899
  2440  0021E4                     l7897:
  2441  0021E4  2A0B               	incf	___xxtofl@exp^0,f,c
  2442  0021E6  90D8               	bcf	status,0,c
  2443  0021E8  320F               	rrcf	(___xxtofl@arg+3)^0,f,c
  2444  0021EA  320E               	rrcf	(___xxtofl@arg+2)^0,f,c
  2445  0021EC  320D               	rrcf	(___xxtofl@arg+1)^0,f,c
  2446  0021EE  320C               	rrcf	___xxtofl@arg^0,f,c
  2447  0021F0                     l7899:
  2448  0021F0  0E00               	movlw	0
  2449  0021F2  140C               	andwf	___xxtofl@arg^0,w,c
  2450  0021F4  6E06               	movwf	??___xxtofl^0,c
  2451  0021F6  0E00               	movlw	0
  2452  0021F8  140D               	andwf	(___xxtofl@arg+1)^0,w,c
  2453  0021FA  6E07               	movwf	(??___xxtofl+1)^0,c
  2454  0021FC  0E00               	movlw	0
  2455  0021FE  140E               	andwf	(___xxtofl@arg+2)^0,w,c
  2456  002200  6E08               	movwf	(??___xxtofl+2)^0,c
  2457  002202  0EFE               	movlw	254
  2458  002204  140F               	andwf	(___xxtofl@arg+3)^0,w,c
  2459  002206  6E09               	movwf	(??___xxtofl+3)^0,c
  2460  002208  5006               	movf	??___xxtofl^0,w,c
  2461  00220A  1007               	iorwf	(??___xxtofl+1)^0,w,c
  2462  00220C  1008               	iorwf	(??___xxtofl+2)^0,w,c
  2463  00220E  1009               	iorwf	(??___xxtofl+3)^0,w,c
  2464  002210  A4D8               	btfss	status,2,c
  2465  002212  EF0D  F011         	goto	u7601
  2466  002216  EF0F  F011         	goto	u7600
  2467  00221A                     u7601:
  2468  00221A  EFF2  F010         	goto	l7897
  2469  00221E                     u7600:
  2470  00221E  EF1D  F011         	goto	l2291
  2471  002222                     l7901:
  2472  002222  2A0B               	incf	___xxtofl@exp^0,f,c
  2473  002224  0E01               	movlw	1
  2474  002226  260C               	addwf	___xxtofl@arg^0,f,c
  2475  002228  0E00               	movlw	0
  2476  00222A  220D               	addwfc	(___xxtofl@arg+1)^0,f,c
  2477  00222C  220E               	addwfc	(___xxtofl@arg+2)^0,f,c
  2478  00222E  220F               	addwfc	(___xxtofl@arg+3)^0,f,c
  2479  002230  90D8               	bcf	status,0,c
  2480  002232  320F               	rrcf	(___xxtofl@arg+3)^0,f,c
  2481  002234  320E               	rrcf	(___xxtofl@arg+2)^0,f,c
  2482  002236  320D               	rrcf	(___xxtofl@arg+1)^0,f,c
  2483  002238  320C               	rrcf	___xxtofl@arg^0,f,c
  2484  00223A                     l2291:
  2485  00223A  0E00               	movlw	0
  2486  00223C  140C               	andwf	___xxtofl@arg^0,w,c
  2487  00223E  6E06               	movwf	??___xxtofl^0,c
  2488  002240  0E00               	movlw	0
  2489  002242  140D               	andwf	(___xxtofl@arg+1)^0,w,c
  2490  002244  6E07               	movwf	(??___xxtofl+1)^0,c
  2491  002246  0E00               	movlw	0
  2492  002248  140E               	andwf	(___xxtofl@arg+2)^0,w,c
  2493  00224A  6E08               	movwf	(??___xxtofl+2)^0,c
  2494  00224C  0EFF               	movlw	255
  2495  00224E  140F               	andwf	(___xxtofl@arg+3)^0,w,c
  2496  002250  6E09               	movwf	(??___xxtofl+3)^0,c
  2497  002252  5006               	movf	??___xxtofl^0,w,c
  2498  002254  1007               	iorwf	(??___xxtofl+1)^0,w,c
  2499  002256  1008               	iorwf	(??___xxtofl+2)^0,w,c
  2500  002258  1009               	iorwf	(??___xxtofl+3)^0,w,c
  2501  00225A  A4D8               	btfss	status,2,c
  2502  00225C  EF32  F011         	goto	u7611
  2503  002260  EF34  F011         	goto	u7610
  2504  002264                     u7611:
  2505  002264  EF11  F011         	goto	l7901
  2506  002268                     u7610:
  2507  002268  EF3C  F011         	goto	l7909
  2508  00226C                     l7907:
  2509  00226C  060B               	decf	___xxtofl@exp^0,f,c
  2510  00226E  90D8               	bcf	status,0,c
  2511  002270  360C               	rlcf	___xxtofl@arg^0,f,c
  2512  002272  360D               	rlcf	(___xxtofl@arg+1)^0,f,c
  2513  002274  360E               	rlcf	(___xxtofl@arg+2)^0,f,c
  2514  002276  360F               	rlcf	(___xxtofl@arg+3)^0,f,c
  2515  002278                     l7909:
  2516  002278  BE0E               	btfsc	(___xxtofl@arg+2)^0,7,c
  2517  00227A  EF41  F011         	goto	u7621
  2518  00227E  EF43  F011         	goto	u7620
  2519  002282                     u7621:
  2520  002282  EF4B  F011         	goto	l2298
  2521  002286                     u7620:
  2522  002286  0E02               	movlw	2
  2523  002288  600B               	cpfslt	___xxtofl@exp^0,c
  2524  00228A  EF49  F011         	goto	u7631
  2525  00228E  EF4B  F011         	goto	u7630
  2526  002292                     u7631:
  2527  002292  EF36  F011         	goto	l7907
  2528  002296                     u7630:
  2529  002296                     l2298:
  2530  002296  B00B               	btfsc	___xxtofl@exp^0,0,c
  2531  002298  EF50  F011         	goto	u7641
  2532  00229C  EF52  F011         	goto	u7640
  2533  0022A0                     u7641:
  2534  0022A0  EF53  F011         	goto	l7915
  2535  0022A4                     u7640:
  2536  0022A4  9E0E               	bcf	(___xxtofl@arg+2)^0,7,c
  2537  0022A6                     l7915:
  2538  0022A6  90D8               	bcf	status,0,c
  2539  0022A8  320B               	rrcf	___xxtofl@exp^0,f,c
  2540  0022AA  C00B  F006         	movff	___xxtofl@exp,??___xxtofl
  2541  0022AE  6A07               	clrf	(??___xxtofl+1)^0,c
  2542  0022B0  6A08               	clrf	(??___xxtofl+2)^0,c
  2543  0022B2  6A09               	clrf	(??___xxtofl+3)^0,c
  2544  0022B4  C006  F009         	movff	??___xxtofl,??___xxtofl+3
  2545  0022B8  6A08               	clrf	(??___xxtofl+2)^0,c
  2546  0022BA  6A07               	clrf	(??___xxtofl+1)^0,c
  2547  0022BC  6A06               	clrf	??___xxtofl^0,c
  2548  0022BE  5006               	movf	??___xxtofl^0,w,c
  2549  0022C0  120C               	iorwf	___xxtofl@arg^0,f,c
  2550  0022C2  5007               	movf	(??___xxtofl+1)^0,w,c
  2551  0022C4  120D               	iorwf	(___xxtofl@arg+1)^0,f,c
  2552  0022C6  5008               	movf	(??___xxtofl+2)^0,w,c
  2553  0022C8  120E               	iorwf	(___xxtofl@arg+2)^0,f,c
  2554  0022CA  5009               	movf	(??___xxtofl+3)^0,w,c
  2555  0022CC  120F               	iorwf	(___xxtofl@arg+3)^0,f,c
  2556  0022CE  500A               	movf	___xxtofl@sign^0,w,c
  2557  0022D0  B4D8               	btfsc	status,2,c
  2558  0022D2  EF6D  F011         	goto	u7651
  2559  0022D6  EF6F  F011         	goto	u7650
  2560  0022DA                     u7651:
  2561  0022DA  EF77  F011         	goto	l7925
  2562  0022DE                     u7650:
  2563  0022DE  BE05               	btfsc	(___xxtofl@val+3)^0,7,c
  2564  0022E0  EF76  F011         	goto	u7660
  2565  0022E4  EF74  F011         	goto	u7661
  2566  0022E8                     u7661:
  2567  0022E8  EF77  F011         	goto	l7925
  2568  0022EC                     u7660:
  2569  0022EC  8E0F               	bsf	(___xxtofl@arg+3)^0,7,c
  2570  0022EE                     l7925:
  2571  0022EE  C00C  F002         	movff	___xxtofl@arg,?___xxtofl
  2572  0022F2  C00D  F003         	movff	___xxtofl@arg+1,?___xxtofl+1
  2573  0022F6  C00E  F004         	movff	___xxtofl@arg+2,?___xxtofl+2
  2574  0022FA  C00F  F005         	movff	___xxtofl@arg+3,?___xxtofl+3
  2575  0022FE                     l2287:
  2576  0022FE  0012               	return		;funcret
  2577  002300                     __end_of___xxtofl:
  2578                           	callstack 0
  2579                           
  2580 ;; *************** function ___fltol *****************
  2581 ;; Defined at:
  2582 ;;		line 43 in file "C:\Program Files\Microchip\xc8\v2.36\pic\sources\c99\common\fltol.c"
  2583 ;; Parameters:    Size  Location     Type
  2584 ;;  f1              4    1[COMRAM] unsigned char 
  2585 ;; Auto vars:     Size  Location     Type
  2586 ;;  exp1            1   10[COMRAM] unsigned char 
  2587 ;;  sign1           1    9[COMRAM] unsigned char 
  2588 ;; Return value:  Size  Location     Type
  2589 ;;                  4    1[COMRAM] long 
  2590 ;; Registers used:
  2591 ;;		wreg, status,2, status,0
  2592 ;; Tracked objects:
  2593 ;;		On entry : 0/0
  2594 ;;		On exit  : 0/0
  2595 ;;		Unchanged: 0/0
  2596 ;; Data sizes:     COMRAM   BANK0   BANK1   BANK2   BANK3   BANK4   BANK5   BANK6   BANK7   BANK8   BANK9  BANK10  BANK1
      +1  BANK12  BANK13  BANK14  BANK15
  2597 ;;      Params:         4       0       0       0       0       0       0       0       0       0       0       0       
      +0       0       0       0       0
  2598 ;;      Locals:         2       0       0       0       0       0       0       0       0       0       0       0       
      +0       0       0       0       0
  2599 ;;      Temps:          4       0       0       0       0       0       0       0       0       0       0       0       
      +0       0       0       0       0
  2600 ;;      Totals:        10       0       0       0       0       0       0       0       0       0       0       0       
      +0       0       0       0       0
  2601 ;;Total ram usage:       10 bytes
  2602 ;; Hardware stack levels used: 1
  2603 ;; Hardware stack levels required when called: 2
  2604 ;; This function calls:
  2605 ;;		Nothing
  2606 ;; This function is called by:
  2607 ;;		_EUSART_Baud_Rate_Calculation
  2608 ;;		_I2C_Master_Mode_Clock_Configurations
  2609 ;; This function uses a non-reentrant model
  2610 ;;
  2611                           
  2612                           	psect	text11
  2613  002570                     __ptext11:
  2614                           	callstack 0
  2615  002570                     ___fltol:
  2616                           	callstack 24
  2617  002570  3404               	rlcf	(___fltol@f1+2)^0,w,c
  2618  002572  3405               	rlcf	(___fltol@f1+3)^0,w,c
  2619  002574  6E0B               	movwf	___fltol@exp1^0,c
  2620  002576  500B               	movf	___fltol@exp1^0,w,c
  2621  002578  A4D8               	btfss	status,2,c
  2622  00257A  EFC1  F012         	goto	u7501
  2623  00257E  EFC3  F012         	goto	u7500
  2624  002582                     u7501:
  2625  002582  EFCD  F012         	goto	l7845
  2626  002586                     u7500:
  2627  002586                     l7841:
  2628  002586  0E00               	movlw	0
  2629  002588  6E02               	movwf	?___fltol^0,c
  2630  00258A  0E00               	movlw	0
  2631  00258C  6E03               	movwf	(?___fltol+1)^0,c
  2632  00258E  0E00               	movlw	0
  2633  002590  6E04               	movwf	(?___fltol+2)^0,c
  2634  002592  0E00               	movlw	0
  2635  002594  6E05               	movwf	(?___fltol+3)^0,c
  2636  002596  EF3A  F013         	goto	l1926
  2637  00259A                     l7845:
  2638  00259A  C002  F006         	movff	___fltol@f1,??___fltol
  2639  00259E  C003  F007         	movff	___fltol@f1+1,??___fltol+1
  2640  0025A2  C004  F008         	movff	___fltol@f1+2,??___fltol+2
  2641  0025A6  C005  F009         	movff	___fltol@f1+3,??___fltol+3
  2642  0025AA  0E20               	movlw	32
  2643  0025AC  EFDD  F012         	goto	u7510
  2644  0025B0                     u7515:
  2645  0025B0  90D8               	bcf	status,0,c
  2646  0025B2  3209               	rrcf	(??___fltol+3)^0,f,c
  2647  0025B4  3208               	rrcf	(??___fltol+2)^0,f,c
  2648  0025B6  3207               	rrcf	(??___fltol+1)^0,f,c
  2649  0025B8  3206               	rrcf	??___fltol^0,f,c
  2650  0025BA                     u7510:
  2651  0025BA  2EE8               	decfsz	wreg,f,c
  2652  0025BC  EFD8  F012         	goto	u7515
  2653  0025C0  5006               	movf	??___fltol^0,w,c
  2654  0025C2  6E0A               	movwf	___fltol@sign1^0,c
  2655  0025C4  8E04               	bsf	(___fltol@f1+2)^0,7,c
  2656  0025C6  0EFF               	movlw	255
  2657  0025C8  1602               	andwf	___fltol@f1^0,f,c
  2658  0025CA  0EFF               	movlw	255
  2659  0025CC  1603               	andwf	(___fltol@f1+1)^0,f,c
  2660  0025CE  0EFF               	movlw	255
  2661  0025D0  1604               	andwf	(___fltol@f1+2)^0,f,c
  2662  0025D2  0E00               	movlw	0
  2663  0025D4  1605               	andwf	(___fltol@f1+3)^0,f,c
  2664  0025D6  0E96               	movlw	150
  2665  0025D8  5E0B               	subwf	___fltol@exp1^0,f,c
  2666  0025DA  BE0B               	btfsc	___fltol@exp1^0,7,c
  2667  0025DC  EFF4  F012         	goto	u7520
  2668  0025E0  EFF2  F012         	goto	u7521
  2669  0025E4                     u7521:
  2670  0025E4  EF0A  F013         	goto	l7865
  2671  0025E8                     u7520:
  2672  0025E8  500B               	movf	___fltol@exp1^0,w,c
  2673  0025EA  0A80               	xorlw	128
  2674  0025EC  0F97               	addlw	151
  2675  0025EE  B0D8               	btfsc	status,0,c
  2676  0025F0  EFFC  F012         	goto	u7531
  2677  0025F4  EFFE  F012         	goto	u7530
  2678  0025F8                     u7531:
  2679  0025F8  EF00  F013         	goto	l7861
  2680  0025FC                     u7530:
  2681  0025FC  EFC3  F012         	goto	l7841
  2682  002600                     l7861:
  2683  002600  90D8               	bcf	status,0,c
  2684  002602  3205               	rrcf	(___fltol@f1+3)^0,f,c
  2685  002604  3204               	rrcf	(___fltol@f1+2)^0,f,c
  2686  002606  3203               	rrcf	(___fltol@f1+1)^0,f,c
  2687  002608  3202               	rrcf	___fltol@f1^0,f,c
  2688  00260A  3E0B               	incfsz	___fltol@exp1^0,f,c
  2689  00260C  EF00  F013         	goto	l7861
  2690  002610  EF22  F013         	goto	l7875
  2691  002614                     l7865:
  2692  002614  0E1F               	movlw	31
  2693  002616  640B               	cpfsgt	___fltol@exp1^0,c
  2694  002618  EF10  F013         	goto	u7541
  2695  00261C  EF12  F013         	goto	u7540
  2696  002620                     u7541:
  2697  002620  EF1A  F013         	goto	l7873
  2698  002624                     u7540:
  2699  002624  EFC3  F012         	goto	l7841
  2700  002628                     l7871:
  2701  002628  90D8               	bcf	status,0,c
  2702  00262A  3602               	rlcf	___fltol@f1^0,f,c
  2703  00262C  3603               	rlcf	(___fltol@f1+1)^0,f,c
  2704  00262E  3604               	rlcf	(___fltol@f1+2)^0,f,c
  2705  002630  3605               	rlcf	(___fltol@f1+3)^0,f,c
  2706  002632  060B               	decf	___fltol@exp1^0,f,c
  2707  002634                     l7873:
  2708  002634  500B               	movf	___fltol@exp1^0,w,c
  2709  002636  A4D8               	btfss	status,2,c
  2710  002638  EF20  F013         	goto	u7551
  2711  00263C  EF22  F013         	goto	u7550
  2712  002640                     u7551:
  2713  002640  EF14  F013         	goto	l7871
  2714  002644                     u7550:
  2715  002644                     l7875:
  2716  002644  500A               	movf	___fltol@sign1^0,w,c
  2717  002646  B4D8               	btfsc	status,2,c
  2718  002648  EF28  F013         	goto	u7561
  2719  00264C  EF2A  F013         	goto	u7560
  2720  002650                     u7561:
  2721  002650  EF32  F013         	goto	l7879
  2722  002654                     u7560:
  2723  002654  1E05               	comf	(___fltol@f1+3)^0,f,c
  2724  002656  1E04               	comf	(___fltol@f1+2)^0,f,c
  2725  002658  1E03               	comf	(___fltol@f1+1)^0,f,c
  2726  00265A  6C02               	negf	___fltol@f1^0,c
  2727  00265C  0E00               	movlw	0
  2728  00265E  2203               	addwfc	(___fltol@f1+1)^0,f,c
  2729  002660  2204               	addwfc	(___fltol@f1+2)^0,f,c
  2730  002662  2205               	addwfc	(___fltol@f1+3)^0,f,c
  2731  002664                     l7879:
  2732  002664  C002  F002         	movff	___fltol@f1,?___fltol
  2733  002668  C003  F003         	movff	___fltol@f1+1,?___fltol+1
  2734  00266C  C004  F004         	movff	___fltol@f1+2,?___fltol+2
  2735  002670  C005  F005         	movff	___fltol@f1+3,?___fltol+3
  2736  002674                     l1926:
  2737  002674  0012               	return		;funcret
  2738  002676                     __end_of___fltol:
  2739                           	callstack 0
  2740                           
  2741 ;; *************** function ___fldiv *****************
  2742 ;; Defined at:
  2743 ;;		line 11 in file "C:\Program Files\Microchip\xc8\v2.36\pic\sources\c99\common\sprcdiv.c"
  2744 ;; Parameters:    Size  Location     Type
  2745 ;;  b               4   15[COMRAM] long 
  2746 ;;  a               4   19[COMRAM] long 
  2747 ;; Auto vars:     Size  Location     Type
  2748 ;;  grs             4   34[COMRAM] unsigned long 
  2749 ;;  rem             4   27[COMRAM] unsigned long 
  2750 ;;  new_exp         2   32[COMRAM] short 
  2751 ;;  aexp            1   39[COMRAM] unsigned char 
  2752 ;;  bexp            1   38[COMRAM] unsigned char 
  2753 ;;  sign            1   31[COMRAM] unsigned char 
  2754 ;; Return value:  Size  Location     Type
  2755 ;;                  4   15[COMRAM] unsigned char 
  2756 ;; Registers used:
  2757 ;;		wreg, status,2, status,0
  2758 ;; Tracked objects:
  2759 ;;		On entry : 0/0
  2760 ;;		On exit  : 0/0
  2761 ;;		Unchanged: 0/0
  2762 ;; Data sizes:     COMRAM   BANK0   BANK1   BANK2   BANK3   BANK4   BANK5   BANK6   BANK7   BANK8   BANK9  BANK10  BANK1
      +1  BANK12  BANK13  BANK14  BANK15
  2763 ;;      Params:         8       0       0       0       0       0       0       0       0       0       0       0       
      +0       0       0       0       0
  2764 ;;      Locals:        13       0       0       0       0       0       0       0       0       0       0       0       
      +0       0       0       0       0
  2765 ;;      Temps:          4       0       0       0       0       0       0       0       0       0       0       0       
      +0       0       0       0       0
  2766 ;;      Totals:        25       0       0       0       0       0       0       0       0       0       0       0       
      +0       0       0       0       0
  2767 ;;Total ram usage:       25 bytes
  2768 ;; Hardware stack levels used: 1
  2769 ;; Hardware stack levels required when called: 2
  2770 ;; This function calls:
  2771 ;;		Nothing
  2772 ;; This function is called by:
  2773 ;;		_EUSART_Baud_Rate_Calculation
  2774 ;;		_I2C_Master_Mode_Clock_Configurations
  2775 ;; This function uses a non-reentrant model
  2776 ;;
  2777                           
  2778                           	psect	text12
  2779  001DB2                     __ptext12:
  2780                           	callstack 0
  2781  001DB2                     ___fldiv:
  2782                           	callstack 24
  2783  001DB2  5013               	movf	(___fldiv@b+3)^0,w,c
  2784  001DB4  0B80               	andlw	128
  2785  001DB6  6E20               	movwf	___fldiv@sign^0,c
  2786  001DB8  5013               	movf	(___fldiv@b+3)^0,w,c
  2787  001DBA  2413               	addwf	(___fldiv@b+3)^0,w,c
  2788  001DBC  6E27               	movwf	___fldiv@bexp^0,c
  2789  001DBE  AE12               	btfss	(___fldiv@b+2)^0,7,c
  2790  001DC0  EFE4  F00E         	goto	u7271
  2791  001DC4  EFE6  F00E         	goto	u7270
  2792  001DC8                     u7271:
  2793  001DC8  EFE7  F00E         	goto	l7707
  2794  001DCC                     u7270:
  2795  001DCC  8027               	bsf	___fldiv@bexp^0,0,c
  2796  001DCE                     l7707:
  2797  001DCE  5027               	movf	___fldiv@bexp^0,w,c
  2798  001DD0  B4D8               	btfsc	status,2,c
  2799  001DD2  EFED  F00E         	goto	u7281
  2800  001DD6  EFEF  F00E         	goto	u7280
  2801  001DDA                     u7281:
  2802  001DDA  EF04  F00F         	goto	l7717
  2803  001DDE                     u7280:
  2804  001DDE  2827               	incf	___fldiv@bexp^0,w,c
  2805  001DE0  A4D8               	btfss	status,2,c
  2806  001DE2  EFF5  F00E         	goto	u7291
  2807  001DE6  EFF7  F00E         	goto	u7290
  2808  001DEA                     u7291:
  2809  001DEA  EFFF  F00E         	goto	l7713
  2810  001DEE                     u7290:
  2811  001DEE  0E00               	movlw	0
  2812  001DF0  6E10               	movwf	___fldiv@b^0,c
  2813  001DF2  0E00               	movlw	0
  2814  001DF4  6E11               	movwf	(___fldiv@b+1)^0,c
  2815  001DF6  0E00               	movlw	0
  2816  001DF8  6E12               	movwf	(___fldiv@b+2)^0,c
  2817  001DFA  0E00               	movlw	0
  2818  001DFC  6E13               	movwf	(___fldiv@b+3)^0,c
  2819  001DFE                     l7713:
  2820  001DFE  8E12               	bsf	(___fldiv@b+2)^0,7,c
  2821  001E00  0E00               	movlw	0
  2822  001E02  6E13               	movwf	(___fldiv@b+3)^0,c
  2823  001E04  EF0C  F00F         	goto	l7719
  2824  001E08                     l7717:
  2825  001E08  0E00               	movlw	0
  2826  001E0A  6E10               	movwf	___fldiv@b^0,c
  2827  001E0C  0E00               	movlw	0
  2828  001E0E  6E11               	movwf	(___fldiv@b+1)^0,c
  2829  001E10  0E00               	movlw	0
  2830  001E12  6E12               	movwf	(___fldiv@b+2)^0,c
  2831  001E14  0E00               	movlw	0
  2832  001E16  6E13               	movwf	(___fldiv@b+3)^0,c
  2833  001E18                     l7719:
  2834  001E18  5017               	movf	(___fldiv@a+3)^0,w,c
  2835  001E1A  0B80               	andlw	128
  2836  001E1C  1A20               	xorwf	___fldiv@sign^0,f,c
  2837  001E1E  5017               	movf	(___fldiv@a+3)^0,w,c
  2838  001E20  2417               	addwf	(___fldiv@a+3)^0,w,c
  2839  001E22  6E28               	movwf	___fldiv@aexp^0,c
  2840  001E24  AE16               	btfss	(___fldiv@a+2)^0,7,c
  2841  001E26  EF17  F00F         	goto	u7301
  2842  001E2A  EF19  F00F         	goto	u7300
  2843  001E2E                     u7301:
  2844  001E2E  EF1A  F00F         	goto	l7727
  2845  001E32                     u7300:
  2846  001E32  8028               	bsf	___fldiv@aexp^0,0,c
  2847  001E34                     l7727:
  2848  001E34  5028               	movf	___fldiv@aexp^0,w,c
  2849  001E36  B4D8               	btfsc	status,2,c
  2850  001E38  EF20  F00F         	goto	u7311
  2851  001E3C  EF22  F00F         	goto	u7310
  2852  001E40                     u7311:
  2853  001E40  EF37  F00F         	goto	l7737
  2854  001E44                     u7310:
  2855  001E44  2828               	incf	___fldiv@aexp^0,w,c
  2856  001E46  A4D8               	btfss	status,2,c
  2857  001E48  EF28  F00F         	goto	u7321
  2858  001E4C  EF2A  F00F         	goto	u7320
  2859  001E50                     u7321:
  2860  001E50  EF32  F00F         	goto	l7733
  2861  001E54                     u7320:
  2862  001E54  0E00               	movlw	0
  2863  001E56  6E14               	movwf	___fldiv@a^0,c
  2864  001E58  0E00               	movlw	0
  2865  001E5A  6E15               	movwf	(___fldiv@a+1)^0,c
  2866  001E5C  0E00               	movlw	0
  2867  001E5E  6E16               	movwf	(___fldiv@a+2)^0,c
  2868  001E60  0E00               	movlw	0
  2869  001E62  6E17               	movwf	(___fldiv@a+3)^0,c
  2870  001E64                     l7733:
  2871  001E64  8E16               	bsf	(___fldiv@a+2)^0,7,c
  2872  001E66  0E00               	movlw	0
  2873  001E68  6E17               	movwf	(___fldiv@a+3)^0,c
  2874  001E6A  EF3F  F00F         	goto	l7739
  2875  001E6E                     l7737:
  2876  001E6E  0E00               	movlw	0
  2877  001E70  6E14               	movwf	___fldiv@a^0,c
  2878  001E72  0E00               	movlw	0
  2879  001E74  6E15               	movwf	(___fldiv@a+1)^0,c
  2880  001E76  0E00               	movlw	0
  2881  001E78  6E16               	movwf	(___fldiv@a+2)^0,c
  2882  001E7A  0E00               	movlw	0
  2883  001E7C  6E17               	movwf	(___fldiv@a+3)^0,c
  2884  001E7E                     l7739:
  2885  001E7E  5014               	movf	___fldiv@a^0,w,c
  2886  001E80  1015               	iorwf	(___fldiv@a+1)^0,w,c
  2887  001E82  1016               	iorwf	(___fldiv@a+2)^0,w,c
  2888  001E84  1017               	iorwf	(___fldiv@a+3)^0,w,c
  2889  001E86  A4D8               	btfss	status,2,c
  2890  001E88  EF48  F00F         	goto	u7331
  2891  001E8C  EF4A  F00F         	goto	u7330
  2892  001E90                     u7331:
  2893  001E90  EF62  F00F         	goto	l7751
  2894  001E94                     u7330:
  2895  001E94  0E00               	movlw	0
  2896  001E96  6E10               	movwf	___fldiv@b^0,c
  2897  001E98  0E00               	movlw	0
  2898  001E9A  6E11               	movwf	(___fldiv@b+1)^0,c
  2899  001E9C  0E00               	movlw	0
  2900  001E9E  6E12               	movwf	(___fldiv@b+2)^0,c
  2901  001EA0  0E00               	movlw	0
  2902  001EA2  6E13               	movwf	(___fldiv@b+3)^0,c
  2903  001EA4  0E80               	movlw	128
  2904  001EA6  1212               	iorwf	(___fldiv@b+2)^0,f,c
  2905  001EA8  0E7F               	movlw	127
  2906  001EAA  1213               	iorwf	(___fldiv@b+3)^0,f,c
  2907  001EAC                     l7745:
  2908  001EAC  5020               	movf	___fldiv@sign^0,w,c
  2909  001EAE  1213               	iorwf	(___fldiv@b+3)^0,f,c
  2910  001EB0  C010  F010         	movff	___fldiv@b,?___fldiv
  2911  001EB4  C011  F011         	movff	___fldiv@b+1,?___fldiv+1
  2912  001EB8  C012  F012         	movff	___fldiv@b+2,?___fldiv+2
  2913  001EBC  C013  F013         	movff	___fldiv@b+3,?___fldiv+3
  2914  001EC0  EFA5  F010         	goto	l2211
  2915  001EC4                     l7751:
  2916  001EC4  5027               	movf	___fldiv@bexp^0,w,c
  2917  001EC6  A4D8               	btfss	status,2,c
  2918  001EC8  EF68  F00F         	goto	u7341
  2919  001ECC  EF6A  F00F         	goto	u7340
  2920  001ED0                     u7341:
  2921  001ED0  EF74  F00F         	goto	l7759
  2922  001ED4                     u7340:
  2923  001ED4  0E00               	movlw	0
  2924  001ED6  6E10               	movwf	?___fldiv^0,c
  2925  001ED8  0E00               	movlw	0
  2926  001EDA  6E11               	movwf	(?___fldiv+1)^0,c
  2927  001EDC  0E00               	movlw	0
  2928  001EDE  6E12               	movwf	(?___fldiv+2)^0,c
  2929  001EE0  0E00               	movlw	0
  2930  001EE2  6E13               	movwf	(?___fldiv+3)^0,c
  2931  001EE4  EFA5  F010         	goto	l2211
  2932  001EE8                     l7759:
  2933  001EE8  5028               	movf	___fldiv@aexp^0,w,c
  2934  001EEA  C027  F018         	movff	___fldiv@bexp,??___fldiv
  2935  001EEE  6A19               	clrf	(??___fldiv+1)^0,c
  2936  001EF0  5E18               	subwf	??___fldiv^0,f,c
  2937  001EF2  0E00               	movlw	0
  2938  001EF4  5A19               	subwfb	(??___fldiv+1)^0,f,c
  2939  001EF6  0E7F               	movlw	127
  2940  001EF8  2418               	addwf	??___fldiv^0,w,c
  2941  001EFA  6E21               	movwf	___fldiv@new_exp^0,c
  2942  001EFC  0E00               	movlw	0
  2943  001EFE  2019               	addwfc	(??___fldiv+1)^0,w,c
  2944  001F00  6E22               	movwf	(___fldiv@new_exp+1)^0,c
  2945  001F02  C010  F01C         	movff	___fldiv@b,___fldiv@rem
  2946  001F06  C011  F01D         	movff	___fldiv@b+1,___fldiv@rem+1
  2947  001F0A  C012  F01E         	movff	___fldiv@b+2,___fldiv@rem+2
  2948  001F0E  C013  F01F         	movff	___fldiv@b+3,___fldiv@rem+3
  2949  001F12  0E00               	movlw	0
  2950  001F14  6E10               	movwf	___fldiv@b^0,c
  2951  001F16  0E00               	movlw	0
  2952  001F18  6E11               	movwf	(___fldiv@b+1)^0,c
  2953  001F1A  0E00               	movlw	0
  2954  001F1C  6E12               	movwf	(___fldiv@b+2)^0,c
  2955  001F1E  0E00               	movlw	0
  2956  001F20  6E13               	movwf	(___fldiv@b+3)^0,c
  2957  001F22  0E00               	movlw	0
  2958  001F24  6E23               	movwf	___fldiv@grs^0,c
  2959  001F26  0E00               	movlw	0
  2960  001F28  6E24               	movwf	(___fldiv@grs+1)^0,c
  2961  001F2A  0E00               	movlw	0
  2962  001F2C  6E25               	movwf	(___fldiv@grs+2)^0,c
  2963  001F2E  0E00               	movlw	0
  2964  001F30  6E26               	movwf	(___fldiv@grs+3)^0,c
  2965  001F32  0E00               	movlw	0
  2966  001F34  6E28               	movwf	___fldiv@aexp^0,c
  2967  001F36  EFD5  F00F         	goto	l2213
  2968  001F3A                     l7769:
  2969  001F3A  5028               	movf	___fldiv@aexp^0,w,c
  2970  001F3C  B4D8               	btfsc	status,2,c
  2971  001F3E  EFA3  F00F         	goto	u7351
  2972  001F42  EFA5  F00F         	goto	u7350
  2973  001F46                     u7351:
  2974  001F46  EFBC  F00F         	goto	l7777
  2975  001F4A                     u7350:
  2976  001F4A  90D8               	bcf	status,0,c
  2977  001F4C  361C               	rlcf	___fldiv@rem^0,f,c
  2978  001F4E  361D               	rlcf	(___fldiv@rem+1)^0,f,c
  2979  001F50  361E               	rlcf	(___fldiv@rem+2)^0,f,c
  2980  001F52  361F               	rlcf	(___fldiv@rem+3)^0,f,c
  2981  001F54  90D8               	bcf	status,0,c
  2982  001F56  3610               	rlcf	___fldiv@b^0,f,c
  2983  001F58  3611               	rlcf	(___fldiv@b+1)^0,f,c
  2984  001F5A  3612               	rlcf	(___fldiv@b+2)^0,f,c
  2985  001F5C  3613               	rlcf	(___fldiv@b+3)^0,f,c
  2986  001F5E  AE26               	btfss	(___fldiv@grs+3)^0,7,c
  2987  001F60  EFB4  F00F         	goto	u7361
  2988  001F64  EFB6  F00F         	goto	u7360
  2989  001F68                     u7361:
  2990  001F68  EFB7  F00F         	goto	l2216
  2991  001F6C                     u7360:
  2992  001F6C  8010               	bsf	___fldiv@b^0,0,c
  2993  001F6E                     l2216:
  2994  001F6E  90D8               	bcf	status,0,c
  2995  001F70  3623               	rlcf	___fldiv@grs^0,f,c
  2996  001F72  3624               	rlcf	(___fldiv@grs+1)^0,f,c
  2997  001F74  3625               	rlcf	(___fldiv@grs+2)^0,f,c
  2998  001F76  3626               	rlcf	(___fldiv@grs+3)^0,f,c
  2999  001F78                     l7777:
  3000  001F78  5014               	movf	___fldiv@a^0,w,c
  3001  001F7A  5C1C               	subwf	___fldiv@rem^0,w,c
  3002  001F7C  5015               	movf	(___fldiv@a+1)^0,w,c
  3003  001F7E  581D               	subwfb	(___fldiv@rem+1)^0,w,c
  3004  001F80  5016               	movf	(___fldiv@a+2)^0,w,c
  3005  001F82  581E               	subwfb	(___fldiv@rem+2)^0,w,c
  3006  001F84  5017               	movf	(___fldiv@a+3)^0,w,c
  3007  001F86  581F               	subwfb	(___fldiv@rem+3)^0,w,c
  3008  001F88  A0D8               	btfss	status,0,c
  3009  001F8A  EFC9  F00F         	goto	u7371
  3010  001F8E  EFCB  F00F         	goto	u7370
  3011  001F92                     u7371:
  3012  001F92  EFD4  F00F         	goto	l7783
  3013  001F96                     u7370:
  3014  001F96  8C26               	bsf	(___fldiv@grs+3)^0,6,c
  3015  001F98  5014               	movf	___fldiv@a^0,w,c
  3016  001F9A  5E1C               	subwf	___fldiv@rem^0,f,c
  3017  001F9C  5015               	movf	(___fldiv@a+1)^0,w,c
  3018  001F9E  5A1D               	subwfb	(___fldiv@rem+1)^0,f,c
  3019  001FA0  5016               	movf	(___fldiv@a+2)^0,w,c
  3020  001FA2  5A1E               	subwfb	(___fldiv@rem+2)^0,f,c
  3021  001FA4  5017               	movf	(___fldiv@a+3)^0,w,c
  3022  001FA6  5A1F               	subwfb	(___fldiv@rem+3)^0,f,c
  3023  001FA8                     l7783:
  3024  001FA8  2A28               	incf	___fldiv@aexp^0,f,c
  3025  001FAA                     l2213:
  3026  001FAA  0E19               	movlw	25
  3027  001FAC  6428               	cpfsgt	___fldiv@aexp^0,c
  3028  001FAE  EFDB  F00F         	goto	u7381
  3029  001FB2  EFDD  F00F         	goto	u7380
  3030  001FB6                     u7381:
  3031  001FB6  EF9D  F00F         	goto	l7769
  3032  001FBA                     u7380:
  3033  001FBA  501C               	movf	___fldiv@rem^0,w,c
  3034  001FBC  101D               	iorwf	(___fldiv@rem+1)^0,w,c
  3035  001FBE  101E               	iorwf	(___fldiv@rem+2)^0,w,c
  3036  001FC0  101F               	iorwf	(___fldiv@rem+3)^0,w,c
  3037  001FC2  B4D8               	btfsc	status,2,c
  3038  001FC4  EFE6  F00F         	goto	u7391
  3039  001FC8  EFE8  F00F         	goto	u7390
  3040  001FCC                     u7391:
  3041  001FCC  EF00  F010         	goto	l7795
  3042  001FD0                     u7390:
  3043  001FD0  8023               	bsf	___fldiv@grs^0,0,c
  3044  001FD2  EF00  F010         	goto	l7795
  3045  001FD6                     l7789:
  3046  001FD6  90D8               	bcf	status,0,c
  3047  001FD8  3610               	rlcf	___fldiv@b^0,f,c
  3048  001FDA  3611               	rlcf	(___fldiv@b+1)^0,f,c
  3049  001FDC  3612               	rlcf	(___fldiv@b+2)^0,f,c
  3050  001FDE  3613               	rlcf	(___fldiv@b+3)^0,f,c
  3051  001FE0  AE26               	btfss	(___fldiv@grs+3)^0,7,c
  3052  001FE2  EFF5  F00F         	goto	u7401
  3053  001FE6  EFF7  F00F         	goto	u7400
  3054  001FEA                     u7401:
  3055  001FEA  EFF8  F00F         	goto	l2222
  3056  001FEE                     u7400:
  3057  001FEE  8010               	bsf	___fldiv@b^0,0,c
  3058  001FF0                     l2222:
  3059  001FF0  90D8               	bcf	status,0,c
  3060  001FF2  3623               	rlcf	___fldiv@grs^0,f,c
  3061  001FF4  3624               	rlcf	(___fldiv@grs+1)^0,f,c
  3062  001FF6  3625               	rlcf	(___fldiv@grs+2)^0,f,c
  3063  001FF8  3626               	rlcf	(___fldiv@grs+3)^0,f,c
  3064  001FFA  0621               	decf	___fldiv@new_exp^0,f,c
  3065  001FFC  A0D8               	btfss	status,0,c
  3066  001FFE  0622               	decf	(___fldiv@new_exp+1)^0,f,c
  3067  002000                     l7795:
  3068  002000  AE12               	btfss	(___fldiv@b+2)^0,7,c
  3069  002002  EF05  F010         	goto	u7411
  3070  002006  EF07  F010         	goto	u7410
  3071  00200A                     u7411:
  3072  00200A  EFEB  F00F         	goto	l7789
  3073  00200E                     u7410:
  3074  00200E  0E00               	movlw	0
  3075  002010  6E28               	movwf	___fldiv@aexp^0,c
  3076  002012  AE26               	btfss	(___fldiv@grs+3)^0,7,c
  3077  002014  EF0E  F010         	goto	u7421
  3078  002018  EF10  F010         	goto	u7420
  3079  00201C                     u7421:
  3080  00201C  EF34  F010         	goto	l2224
  3081  002020                     u7420:
  3082  002020  0EFF               	movlw	255
  3083  002022  1423               	andwf	___fldiv@grs^0,w,c
  3084  002024  6E18               	movwf	??___fldiv^0,c
  3085  002026  0EFF               	movlw	255
  3086  002028  1424               	andwf	(___fldiv@grs+1)^0,w,c
  3087  00202A  6E19               	movwf	(??___fldiv+1)^0,c
  3088  00202C  0EFF               	movlw	255
  3089  00202E  1425               	andwf	(___fldiv@grs+2)^0,w,c
  3090  002030  6E1A               	movwf	(??___fldiv+2)^0,c
  3091  002032  0E7F               	movlw	127
  3092  002034  1426               	andwf	(___fldiv@grs+3)^0,w,c
  3093  002036  6E1B               	movwf	(??___fldiv+3)^0,c
  3094  002038  5018               	movf	??___fldiv^0,w,c
  3095  00203A  1019               	iorwf	(??___fldiv+1)^0,w,c
  3096  00203C  101A               	iorwf	(??___fldiv+2)^0,w,c
  3097  00203E  101B               	iorwf	(??___fldiv+3)^0,w,c
  3098  002040  B4D8               	btfsc	status,2,c
  3099  002042  EF25  F010         	goto	u7431
  3100  002046  EF27  F010         	goto	u7430
  3101  00204A                     u7431:
  3102  00204A  EF2B  F010         	goto	l2225
  3103  00204E                     u7430:
  3104  00204E                     l7803:
  3105  00204E  0E01               	movlw	1
  3106  002050  6E28               	movwf	___fldiv@aexp^0,c
  3107  002052  EF34  F010         	goto	l2224
  3108  002056                     l2225:
  3109  002056  A010               	btfss	___fldiv@b^0,0,c
  3110  002058  EF30  F010         	goto	u7441
  3111  00205C  EF32  F010         	goto	u7440
  3112  002060                     u7441:
  3113  002060  EF34  F010         	goto	l2224
  3114  002064                     u7440:
  3115  002064  EF27  F010         	goto	l7803
  3116  002068                     l2224:
  3117  002068  5028               	movf	___fldiv@aexp^0,w,c
  3118  00206A  B4D8               	btfsc	status,2,c
  3119  00206C  EF3A  F010         	goto	u7451
  3120  002070  EF3C  F010         	goto	u7450
  3121  002074                     u7451:
  3122  002074  EF60  F010         	goto	l7815
  3123  002078                     u7450:
  3124  002078  0E01               	movlw	1
  3125  00207A  2610               	addwf	___fldiv@b^0,f,c
  3126  00207C  0E00               	movlw	0
  3127  00207E  2211               	addwfc	(___fldiv@b+1)^0,f,c
  3128  002080  2212               	addwfc	(___fldiv@b+2)^0,f,c
  3129  002082  2213               	addwfc	(___fldiv@b+3)^0,f,c
  3130  002084  A013               	btfss	(___fldiv@b+3)^0,0,c
  3131  002086  EF47  F010         	goto	u7461
  3132  00208A  EF49  F010         	goto	u7460
  3133  00208E                     u7461:
  3134  00208E  EF60  F010         	goto	l7815
  3135  002092                     u7460:
  3136  002092  C010  F018         	movff	___fldiv@b,??___fldiv
  3137  002096  C011  F019         	movff	___fldiv@b+1,??___fldiv+1
  3138  00209A  C012  F01A         	movff	___fldiv@b+2,??___fldiv+2
  3139  00209E  C013  F01B         	movff	___fldiv@b+3,??___fldiv+3
  3140  0020A2  341B               	rlcf	(??___fldiv+3)^0,w,c
  3141  0020A4  321B               	rrcf	(??___fldiv+3)^0,f,c
  3142  0020A6  321A               	rrcf	(??___fldiv+2)^0,f,c
  3143  0020A8  3219               	rrcf	(??___fldiv+1)^0,f,c
  3144  0020AA  3218               	rrcf	??___fldiv^0,f,c
  3145  0020AC  C018  F010         	movff	??___fldiv,___fldiv@b
  3146  0020B0  C019  F011         	movff	??___fldiv+1,___fldiv@b+1
  3147  0020B4  C01A  F012         	movff	??___fldiv+2,___fldiv@b+2
  3148  0020B8  C01B  F013         	movff	??___fldiv+3,___fldiv@b+3
  3149  0020BC  4A21               	infsnz	___fldiv@new_exp^0,f,c
  3150  0020BE  2A22               	incf	(___fldiv@new_exp+1)^0,f,c
  3151  0020C0                     l7815:
  3152  0020C0  BE22               	btfsc	(___fldiv@new_exp+1)^0,7,c
  3153  0020C2  EF6B  F010         	goto	u7471
  3154  0020C6  5022               	movf	(___fldiv@new_exp+1)^0,w,c
  3155  0020C8  E108               	bnz	u7470
  3156  0020CA  2821               	incf	___fldiv@new_exp^0,w,c
  3157  0020CC  A0D8               	btfss	status,0,c
  3158  0020CE  EF6B  F010         	goto	u7471
  3159  0020D2  EF6D  F010         	goto	u7470
  3160  0020D6                     u7471:
  3161  0020D6  EF78  F010         	goto	l7819
  3162  0020DA                     u7470:
  3163  0020DA  0E00               	movlw	0
  3164  0020DC  6E22               	movwf	(___fldiv@new_exp+1)^0,c
  3165  0020DE  6821               	setf	___fldiv@new_exp^0,c
  3166  0020E0  0E00               	movlw	0
  3167  0020E2  6E10               	movwf	___fldiv@b^0,c
  3168  0020E4  0E00               	movlw	0
  3169  0020E6  6E11               	movwf	(___fldiv@b+1)^0,c
  3170  0020E8  0E00               	movlw	0
  3171  0020EA  6E12               	movwf	(___fldiv@b+2)^0,c
  3172  0020EC  0E00               	movlw	0
  3173  0020EE  6E13               	movwf	(___fldiv@b+3)^0,c
  3174  0020F0                     l7819:
  3175  0020F0  BE22               	btfsc	(___fldiv@new_exp+1)^0,7,c
  3176  0020F2  EF85  F010         	goto	u7480
  3177  0020F6  5022               	movf	(___fldiv@new_exp+1)^0,w,c
  3178  0020F8  E106               	bnz	u7481
  3179  0020FA  0421               	decf	___fldiv@new_exp^0,w,c
  3180  0020FC  B0D8               	btfsc	status,0,c
  3181  0020FE  EF83  F010         	goto	u7481
  3182  002102  EF85  F010         	goto	u7480
  3183  002106                     u7481:
  3184  002106  EF93  F010         	goto	l7823
  3185  00210A                     u7480:
  3186  00210A  0E00               	movlw	0
  3187  00210C  6E22               	movwf	(___fldiv@new_exp+1)^0,c
  3188  00210E  0E00               	movlw	0
  3189  002110  6E21               	movwf	___fldiv@new_exp^0,c
  3190  002112  0E00               	movlw	0
  3191  002114  6E10               	movwf	___fldiv@b^0,c
  3192  002116  0E00               	movlw	0
  3193  002118  6E11               	movwf	(___fldiv@b+1)^0,c
  3194  00211A  0E00               	movlw	0
  3195  00211C  6E12               	movwf	(___fldiv@b+2)^0,c
  3196  00211E  0E00               	movlw	0
  3197  002120  6E13               	movwf	(___fldiv@b+3)^0,c
  3198  002122  0E00               	movlw	0
  3199  002124  6E20               	movwf	___fldiv@sign^0,c
  3200  002126                     l7823:
  3201  002126  C021  F027         	movff	___fldiv@new_exp,___fldiv@bexp
  3202  00212A  A027               	btfss	___fldiv@bexp^0,0,c
  3203  00212C  EF9A  F010         	goto	u7491
  3204  002130  EF9C  F010         	goto	u7490
  3205  002134                     u7491:
  3206  002134  EF9F  F010         	goto	l7829
  3207  002138                     u7490:
  3208  002138  8E12               	bsf	(___fldiv@b+2)^0,7,c
  3209  00213A  EFA0  F010         	goto	l7831
  3210  00213E                     l7829:
  3211  00213E  9E12               	bcf	(___fldiv@b+2)^0,7,c
  3212  002140                     l7831:
  3213  002140  90D8               	bcf	status,0,c
  3214  002142  3027               	rrcf	___fldiv@bexp^0,w,c
  3215  002144  6E13               	movwf	(___fldiv@b+3)^0,c
  3216  002146  EF56  F00F         	goto	l7745
  3217  00214A                     l2211:
  3218  00214A  0012               	return		;funcret
  3219  00214C                     __end_of___fldiv:
  3220                           	callstack 0
  3221                           
  3222 ;; *************** function ___fladd *****************
  3223 ;; Defined at:
  3224 ;;		line 10 in file "C:\Program Files\Microchip\xc8\v2.36\pic\sources\c99\common\sprcadd.c"
  3225 ;; Parameters:    Size  Location     Type
  3226 ;;  b               4   40[COMRAM] unsigned char 
  3227 ;;  a               4   44[COMRAM] unsigned char 
  3228 ;; Auto vars:     Size  Location     Type
  3229 ;;  grs             1   55[COMRAM] unsigned char 
  3230 ;;  bexp            1   54[COMRAM] unsigned char 
  3231 ;;  aexp            1   53[COMRAM] unsigned char 
  3232 ;;  signs           1   52[COMRAM] unsigned char 
  3233 ;; Return value:  Size  Location     Type
  3234 ;;                  4   40[COMRAM] unsigned char 
  3235 ;; Registers used:
  3236 ;;		wreg, status,2, status,0
  3237 ;; Tracked objects:
  3238 ;;		On entry : 0/0
  3239 ;;		On exit  : 0/0
  3240 ;;		Unchanged: 0/0
  3241 ;; Data sizes:     COMRAM   BANK0   BANK1   BANK2   BANK3   BANK4   BANK5   BANK6   BANK7   BANK8   BANK9  BANK10  BANK1
      +1  BANK12  BANK13  BANK14  BANK15
  3242 ;;      Params:         8       0       0       0       0       0       0       0       0       0       0       0       
      +0       0       0       0       0
  3243 ;;      Locals:         4       0       0       0       0       0       0       0       0       0       0       0       
      +0       0       0       0       0
  3244 ;;      Temps:          4       0       0       0       0       0       0       0       0       0       0       0       
      +0       0       0       0       0
  3245 ;;      Totals:        16       0       0       0       0       0       0       0       0       0       0       0       
      +0       0       0       0       0
  3246 ;;Total ram usage:       16 bytes
  3247 ;; Hardware stack levels used: 1
  3248 ;; Hardware stack levels required when called: 2
  3249 ;; This function calls:
  3250 ;;		Nothing
  3251 ;; This function is called by:
  3252 ;;		_EUSART_Baud_Rate_Calculation
  3253 ;;		_I2C_Master_Mode_Clock_Configurations
  3254 ;; This function uses a non-reentrant model
  3255 ;;
  3256                           
  3257                           	psect	text13
  3258  00150C                     __ptext13:
  3259                           	callstack 0
  3260  00150C                     ___fladd:
  3261                           	callstack 24
  3262  00150C  502C               	movf	(___fladd@b+3)^0,w,c
  3263  00150E  0B80               	andlw	128
  3264  001510  6E35               	movwf	___fladd@signs^0,c
  3265  001512  502C               	movf	(___fladd@b+3)^0,w,c
  3266  001514  242C               	addwf	(___fladd@b+3)^0,w,c
  3267  001516  6E37               	movwf	___fladd@bexp^0,c
  3268  001518  AE2B               	btfss	(___fladd@b+2)^0,7,c
  3269  00151A  EF91  F00A         	goto	u6881
  3270  00151E  EF93  F00A         	goto	u6880
  3271  001522                     u6881:
  3272  001522  EF94  F00A         	goto	l7505
  3273  001526                     u6880:
  3274  001526  8037               	bsf	___fladd@bexp^0,0,c
  3275  001528                     l7505:
  3276  001528  5037               	movf	___fladd@bexp^0,w,c
  3277  00152A  B4D8               	btfsc	status,2,c
  3278  00152C  EF9A  F00A         	goto	u6891
  3279  001530  EF9C  F00A         	goto	u6890
  3280  001534                     u6891:
  3281  001534  EFB1  F00A         	goto	l7515
  3282  001538                     u6890:
  3283  001538  2837               	incf	___fladd@bexp^0,w,c
  3284  00153A  A4D8               	btfss	status,2,c
  3285  00153C  EFA2  F00A         	goto	u6901
  3286  001540  EFA4  F00A         	goto	u6900
  3287  001544                     u6901:
  3288  001544  EFAC  F00A         	goto	l7511
  3289  001548                     u6900:
  3290  001548  0E00               	movlw	0
  3291  00154A  6E29               	movwf	___fladd@b^0,c
  3292  00154C  0E00               	movlw	0
  3293  00154E  6E2A               	movwf	(___fladd@b+1)^0,c
  3294  001550  0E00               	movlw	0
  3295  001552  6E2B               	movwf	(___fladd@b+2)^0,c
  3296  001554  0E00               	movlw	0
  3297  001556  6E2C               	movwf	(___fladd@b+3)^0,c
  3298  001558                     l7511:
  3299  001558  8E2B               	bsf	(___fladd@b+2)^0,7,c
  3300  00155A  0E00               	movlw	0
  3301  00155C  6E2C               	movwf	(___fladd@b+3)^0,c
  3302  00155E  EFB9  F00A         	goto	l7517
  3303  001562                     l7515:
  3304  001562  0E00               	movlw	0
  3305  001564  6E29               	movwf	___fladd@b^0,c
  3306  001566  0E00               	movlw	0
  3307  001568  6E2A               	movwf	(___fladd@b+1)^0,c
  3308  00156A  0E00               	movlw	0
  3309  00156C  6E2B               	movwf	(___fladd@b+2)^0,c
  3310  00156E  0E00               	movlw	0
  3311  001570  6E2C               	movwf	(___fladd@b+3)^0,c
  3312  001572                     l7517:
  3313  001572  5030               	movf	(___fladd@a+3)^0,w,c
  3314  001574  0B80               	andlw	128
  3315  001576  6E36               	movwf	___fladd@aexp^0,c
  3316  001578  5035               	movf	___fladd@signs^0,w,c
  3317  00157A  1836               	xorwf	___fladd@aexp^0,w,c
  3318  00157C  B4D8               	btfsc	status,2,c
  3319  00157E  EFC3  F00A         	goto	u6911
  3320  001582  EFC5  F00A         	goto	u6910
  3321  001586                     u6911:
  3322  001586  EFC6  F00A         	goto	l7523
  3323  00158A                     u6910:
  3324  00158A  8C35               	bsf	___fladd@signs^0,6,c
  3325  00158C                     l7523:
  3326  00158C  5030               	movf	(___fladd@a+3)^0,w,c
  3327  00158E  2430               	addwf	(___fladd@a+3)^0,w,c
  3328  001590  6E36               	movwf	___fladd@aexp^0,c
  3329  001592  AE2F               	btfss	(___fladd@a+2)^0,7,c
  3330  001594  EFCE  F00A         	goto	u6921
  3331  001598  EFD0  F00A         	goto	u6920
  3332  00159C                     u6921:
  3333  00159C  EFD1  F00A         	goto	l7529
  3334  0015A0                     u6920:
  3335  0015A0  8036               	bsf	___fladd@aexp^0,0,c
  3336  0015A2                     l7529:
  3337  0015A2  5036               	movf	___fladd@aexp^0,w,c
  3338  0015A4  B4D8               	btfsc	status,2,c
  3339  0015A6  EFD7  F00A         	goto	u6931
  3340  0015AA  EFD9  F00A         	goto	u6930
  3341  0015AE                     u6931:
  3342  0015AE  EFEE  F00A         	goto	l7539
  3343  0015B2                     u6930:
  3344  0015B2  2836               	incf	___fladd@aexp^0,w,c
  3345  0015B4  A4D8               	btfss	status,2,c
  3346  0015B6  EFDF  F00A         	goto	u6941
  3347  0015BA  EFE1  F00A         	goto	u6940
  3348  0015BE                     u6941:
  3349  0015BE  EFE9  F00A         	goto	l7535
  3350  0015C2                     u6940:
  3351  0015C2  0E00               	movlw	0
  3352  0015C4  6E2D               	movwf	___fladd@a^0,c
  3353  0015C6  0E00               	movlw	0
  3354  0015C8  6E2E               	movwf	(___fladd@a+1)^0,c
  3355  0015CA  0E00               	movlw	0
  3356  0015CC  6E2F               	movwf	(___fladd@a+2)^0,c
  3357  0015CE  0E00               	movlw	0
  3358  0015D0  6E30               	movwf	(___fladd@a+3)^0,c
  3359  0015D2                     l7535:
  3360  0015D2  8E2F               	bsf	(___fladd@a+2)^0,7,c
  3361  0015D4  0E00               	movlw	0
  3362  0015D6  6E30               	movwf	(___fladd@a+3)^0,c
  3363  0015D8  EFF6  F00A         	goto	l7541
  3364  0015DC                     l7539:
  3365  0015DC  0E00               	movlw	0
  3366  0015DE  6E2D               	movwf	___fladd@a^0,c
  3367  0015E0  0E00               	movlw	0
  3368  0015E2  6E2E               	movwf	(___fladd@a+1)^0,c
  3369  0015E4  0E00               	movlw	0
  3370  0015E6  6E2F               	movwf	(___fladd@a+2)^0,c
  3371  0015E8  0E00               	movlw	0
  3372  0015EA  6E30               	movwf	(___fladd@a+3)^0,c
  3373  0015EC                     l7541:
  3374  0015EC  5037               	movf	___fladd@bexp^0,w,c
  3375  0015EE  5C36               	subwf	___fladd@aexp^0,w,c
  3376  0015F0  B0D8               	btfsc	status,0,c
  3377  0015F2  EFFD  F00A         	goto	u6951
  3378  0015F6  EFFF  F00A         	goto	u6950
  3379  0015FA                     u6951:
  3380  0015FA  EF26  F00B         	goto	l7577
  3381  0015FE                     u6950:
  3382  0015FE  AC35               	btfss	___fladd@signs^0,6,c
  3383  001600  EF04  F00B         	goto	u6961
  3384  001604  EF06  F00B         	goto	u6960
  3385  001608                     u6961:
  3386  001608  EF08  F00B         	goto	l7547
  3387  00160C                     u6960:
  3388  00160C  0E80               	movlw	128
  3389  00160E  1A35               	xorwf	___fladd@signs^0,f,c
  3390  001610                     l7547:
  3391  001610  C037  F038         	movff	___fladd@bexp,___fladd@grs
  3392  001614  C036  F037         	movff	___fladd@aexp,___fladd@bexp
  3393  001618  C038  F036         	movff	___fladd@grs,___fladd@aexp
  3394  00161C  C029  F038         	movff	___fladd@b,___fladd@grs
  3395  001620  C02D  F029         	movff	___fladd@a,___fladd@b
  3396  001624  C038  F02D         	movff	___fladd@grs,___fladd@a
  3397  001628  C02A  F038         	movff	___fladd@b+1,___fladd@grs
  3398  00162C  C02E  F02A         	movff	___fladd@a+1,___fladd@b+1
  3399  001630  C038  F02E         	movff	___fladd@grs,___fladd@a+1
  3400  001634  C02B  F038         	movff	___fladd@b+2,___fladd@grs
  3401  001638  C02F  F02B         	movff	___fladd@a+2,___fladd@b+2
  3402  00163C  C038  F02F         	movff	___fladd@grs,___fladd@a+2
  3403  001640  C02C  F038         	movff	___fladd@b+3,___fladd@grs
  3404  001644  C030  F02C         	movff	___fladd@a+3,___fladd@b+3
  3405  001648  C038  F030         	movff	___fladd@grs,___fladd@a+3
  3406  00164C                     l7577:
  3407  00164C  0E00               	movlw	0
  3408  00164E  6E38               	movwf	___fladd@grs^0,c
  3409  001650  5037               	movf	___fladd@bexp^0,w,c
  3410  001652  C036  F031         	movff	___fladd@aexp,??___fladd
  3411  001656  6A32               	clrf	(??___fladd+1)^0,c
  3412  001658  5E31               	subwf	??___fladd^0,f,c
  3413  00165A  0E00               	movlw	0
  3414  00165C  5A32               	subwfb	(??___fladd+1)^0,f,c
  3415  00165E  BE32               	btfsc	(??___fladd+1)^0,7,c
  3416  001660  EF3B  F00B         	goto	u6971
  3417  001664  5032               	movf	(??___fladd+1)^0,w,c
  3418  001666  E109               	bnz	u6970
  3419  001668  0E1A               	movlw	26
  3420  00166A  5C31               	subwf	??___fladd^0,w,c
  3421  00166C  A0D8               	btfss	status,0,c
  3422  00166E  EF3B  F00B         	goto	u6971
  3423  001672  EF3D  F00B         	goto	u6970
  3424  001676                     u6971:
  3425  001676  EF74  F00B         	goto	l2158
  3426  00167A                     u6970:
  3427  00167A  5029               	movf	___fladd@b^0,w,c
  3428  00167C  102A               	iorwf	(___fladd@b+1)^0,w,c
  3429  00167E  102B               	iorwf	(___fladd@b+2)^0,w,c
  3430  001680  102C               	iorwf	(___fladd@b+3)^0,w,c
  3431  001682  A4D8               	btfss	status,2,c
  3432  001684  EF46  F00B         	goto	u6981
  3433  001688  EF49  F00B         	goto	u6980
  3434  00168C                     u6981:
  3435  00168C  0E01               	movlw	1
  3436  00168E  EF4A  F00B         	goto	u6990
  3437  001692                     u6980:
  3438  001692  0E00               	movlw	0
  3439  001694                     u6990:
  3440  001694  6E38               	movwf	___fladd@grs^0,c
  3441  001696  0E00               	movlw	0
  3442  001698  6E29               	movwf	___fladd@b^0,c
  3443  00169A  0E00               	movlw	0
  3444  00169C  6E2A               	movwf	(___fladd@b+1)^0,c
  3445  00169E  0E00               	movlw	0
  3446  0016A0  6E2B               	movwf	(___fladd@b+2)^0,c
  3447  0016A2  0E00               	movlw	0
  3448  0016A4  6E2C               	movwf	(___fladd@b+3)^0,c
  3449  0016A6  C036  F037         	movff	___fladd@aexp,___fladd@bexp
  3450  0016AA  EF7D  F00B         	goto	l2157
  3451  0016AE                     l2159:
  3452  0016AE  A038               	btfss	___fladd@grs^0,0,c
  3453  0016B0  EF5C  F00B         	goto	u7001
  3454  0016B4  EF5E  F00B         	goto	u7000
  3455  0016B8                     u7001:
  3456  0016B8  EF64  F00B         	goto	l7589
  3457  0016BC                     u7000:
  3458  0016BC  90D8               	bcf	status,0,c
  3459  0016BE  3038               	rrcf	___fladd@grs^0,w,c
  3460  0016C0  0901               	iorlw	1
  3461  0016C2  6E38               	movwf	___fladd@grs^0,c
  3462  0016C4  EF66  F00B         	goto	l7591
  3463  0016C8                     l7589:
  3464  0016C8  90D8               	bcf	status,0,c
  3465  0016CA  3238               	rrcf	___fladd@grs^0,f,c
  3466  0016CC                     l7591:
  3467  0016CC  A029               	btfss	___fladd@b^0,0,c
  3468  0016CE  EF6B  F00B         	goto	u7011
  3469  0016D2  EF6D  F00B         	goto	u7010
  3470  0016D6                     u7011:
  3471  0016D6  EF6E  F00B         	goto	l7595
  3472  0016DA                     u7010:
  3473  0016DA  8E38               	bsf	___fladd@grs^0,7,c
  3474  0016DC                     l7595:
  3475  0016DC  342C               	rlcf	(___fladd@b+3)^0,w,c
  3476  0016DE  322C               	rrcf	(___fladd@b+3)^0,f,c
  3477  0016E0  322B               	rrcf	(___fladd@b+2)^0,f,c
  3478  0016E2  322A               	rrcf	(___fladd@b+1)^0,f,c
  3479  0016E4  3229               	rrcf	___fladd@b^0,f,c
  3480  0016E6  2A37               	incf	___fladd@bexp^0,f,c
  3481  0016E8                     l2158:
  3482  0016E8  5036               	movf	___fladd@aexp^0,w,c
  3483  0016EA  5C37               	subwf	___fladd@bexp^0,w,c
  3484  0016EC  A0D8               	btfss	status,0,c
  3485  0016EE  EF7B  F00B         	goto	u7021
  3486  0016F2  EF7D  F00B         	goto	u7020
  3487  0016F6                     u7021:
  3488  0016F6  EF57  F00B         	goto	l2159
  3489  0016FA                     u7020:
  3490  0016FA                     l2157:
  3491  0016FA  BC35               	btfsc	___fladd@signs^0,6,c
  3492  0016FC  EF82  F00B         	goto	u7031
  3493  001700  EF84  F00B         	goto	u7030
  3494  001704                     u7031:
  3495  001704  EFC4  F00B         	goto	l7623
  3496  001708                     u7030:
  3497  001708  5037               	movf	___fladd@bexp^0,w,c
  3498  00170A  A4D8               	btfss	status,2,c
  3499  00170C  EF8A  F00B         	goto	u7041
  3500  001710  EF8C  F00B         	goto	u7040
  3501  001714                     u7041:
  3502  001714  EF96  F00B         	goto	l7605
  3503  001718                     u7040:
  3504  001718  0E00               	movlw	0
  3505  00171A  6E29               	movwf	?___fladd^0,c
  3506  00171C  0E00               	movlw	0
  3507  00171E  6E2A               	movwf	(?___fladd+1)^0,c
  3508  001720  0E00               	movlw	0
  3509  001722  6E2B               	movwf	(?___fladd+2)^0,c
  3510  001724  0E00               	movlw	0
  3511  001726  6E2C               	movwf	(?___fladd+3)^0,c
  3512  001728  EFE5  F00C         	goto	l2166
  3513  00172C                     l7605:
  3514  00172C  502D               	movf	___fladd@a^0,w,c
  3515  00172E  2629               	addwf	___fladd@b^0,f,c
  3516  001730  502E               	movf	(___fladd@a+1)^0,w,c
  3517  001732  222A               	addwfc	(___fladd@b+1)^0,f,c
  3518  001734  502F               	movf	(___fladd@a+2)^0,w,c
  3519  001736  222B               	addwfc	(___fladd@b+2)^0,f,c
  3520  001738  5030               	movf	(___fladd@a+3)^0,w,c
  3521  00173A  222C               	addwfc	(___fladd@b+3)^0,f,c
  3522  00173C  A02C               	btfss	(___fladd@b+3)^0,0,c
  3523  00173E  EFA3  F00B         	goto	u7051
  3524  001742  EFA5  F00B         	goto	u7050
  3525  001746                     u7051:
  3526  001746  EF51  F00C         	goto	l7659
  3527  00174A                     u7050:
  3528  00174A  A038               	btfss	___fladd@grs^0,0,c
  3529  00174C  EFAA  F00B         	goto	u7061
  3530  001750  EFAC  F00B         	goto	u7060
  3531  001754                     u7061:
  3532  001754  EFB2  F00B         	goto	l7613
  3533  001758                     u7060:
  3534  001758  90D8               	bcf	status,0,c
  3535  00175A  3038               	rrcf	___fladd@grs^0,w,c
  3536  00175C  0901               	iorlw	1
  3537  00175E  6E38               	movwf	___fladd@grs^0,c
  3538  001760  EFB4  F00B         	goto	l7615
  3539  001764                     l7613:
  3540  001764  90D8               	bcf	status,0,c
  3541  001766  3238               	rrcf	___fladd@grs^0,f,c
  3542  001768                     l7615:
  3543  001768  A029               	btfss	___fladd@b^0,0,c
  3544  00176A  EFB9  F00B         	goto	u7071
  3545  00176E  EFBB  F00B         	goto	u7070
  3546  001772                     u7071:
  3547  001772  EFBC  F00B         	goto	l7619
  3548  001776                     u7070:
  3549  001776  8E38               	bsf	___fladd@grs^0,7,c
  3550  001778                     l7619:
  3551  001778  342C               	rlcf	(___fladd@b+3)^0,w,c
  3552  00177A  322C               	rrcf	(___fladd@b+3)^0,f,c
  3553  00177C  322B               	rrcf	(___fladd@b+2)^0,f,c
  3554  00177E  322A               	rrcf	(___fladd@b+1)^0,f,c
  3555  001780  3229               	rrcf	___fladd@b^0,f,c
  3556  001782  2A37               	incf	___fladd@bexp^0,f,c
  3557  001784  EF51  F00C         	goto	l7659
  3558  001788                     l7623:
  3559  001788  502D               	movf	___fladd@a^0,w,c
  3560  00178A  5C29               	subwf	___fladd@b^0,w,c
  3561  00178C  502E               	movf	(___fladd@a+1)^0,w,c
  3562  00178E  582A               	subwfb	(___fladd@b+1)^0,w,c
  3563  001790  502F               	movf	(___fladd@a+2)^0,w,c
  3564  001792  582B               	subwfb	(___fladd@b+2)^0,w,c
  3565  001794  502C               	movf	(___fladd@b+3)^0,w,c
  3566  001796  0A80               	xorlw	128
  3567  001798  6E31               	movwf	??___fladd^0,c
  3568  00179A  5030               	movf	(___fladd@a+3)^0,w,c
  3569  00179C  0A80               	xorlw	128
  3570  00179E  5831               	subwfb	??___fladd^0,w,c
  3571  0017A0  B0D8               	btfsc	status,0,c
  3572  0017A2  EFD5  F00B         	goto	u7081
  3573  0017A6  EFD7  F00B         	goto	u7080
  3574  0017AA                     u7081:
  3575  0017AA  EF02  F00C         	goto	l7633
  3576  0017AE                     u7080:
  3577  0017AE  5029               	movf	___fladd@b^0,w,c
  3578  0017B0  5C2D               	subwf	___fladd@a^0,w,c
  3579  0017B2  6E31               	movwf	??___fladd^0,c
  3580  0017B4  502A               	movf	(___fladd@b+1)^0,w,c
  3581  0017B6  582E               	subwfb	(___fladd@a+1)^0,w,c
  3582  0017B8  6E32               	movwf	(??___fladd+1)^0,c
  3583  0017BA  502B               	movf	(___fladd@b+2)^0,w,c
  3584  0017BC  582F               	subwfb	(___fladd@a+2)^0,w,c
  3585  0017BE  6E33               	movwf	(??___fladd+2)^0,c
  3586  0017C0  502C               	movf	(___fladd@b+3)^0,w,c
  3587  0017C2  5830               	subwfb	(___fladd@a+3)^0,w,c
  3588  0017C4  6E34               	movwf	(??___fladd+3)^0,c
  3589  0017C6  0EFF               	movlw	255
  3590  0017C8  2431               	addwf	??___fladd^0,w,c
  3591  0017CA  6E29               	movwf	___fladd@b^0,c
  3592  0017CC  0EFF               	movlw	255
  3593  0017CE  2032               	addwfc	(??___fladd+1)^0,w,c
  3594  0017D0  6E2A               	movwf	(___fladd@b+1)^0,c
  3595  0017D2  0EFF               	movlw	255
  3596  0017D4  2033               	addwfc	(??___fladd+2)^0,w,c
  3597  0017D6  6E2B               	movwf	(___fladd@b+2)^0,c
  3598  0017D8  0EFF               	movlw	255
  3599  0017DA  2034               	addwfc	(??___fladd+3)^0,w,c
  3600  0017DC  6E2C               	movwf	(___fladd@b+3)^0,c
  3601  0017DE  0E80               	movlw	128
  3602  0017E0  1A35               	xorwf	___fladd@signs^0,f,c
  3603  0017E2  6C38               	negf	___fladd@grs^0,c
  3604  0017E4  5038               	movf	___fladd@grs^0,w,c
  3605  0017E6  A4D8               	btfss	status,2,c
  3606  0017E8  EFF8  F00B         	goto	u7091
  3607  0017EC  EFFA  F00B         	goto	u7090
  3608  0017F0                     u7091:
  3609  0017F0  EF0A  F00C         	goto	l2174
  3610  0017F4                     u7090:
  3611  0017F4  0E01               	movlw	1
  3612  0017F6  2629               	addwf	___fladd@b^0,f,c
  3613  0017F8  0E00               	movlw	0
  3614  0017FA  222A               	addwfc	(___fladd@b+1)^0,f,c
  3615  0017FC  222B               	addwfc	(___fladd@b+2)^0,f,c
  3616  0017FE  222C               	addwfc	(___fladd@b+3)^0,f,c
  3617  001800  EF0A  F00C         	goto	l2174
  3618  001804                     l7633:
  3619  001804  502D               	movf	___fladd@a^0,w,c
  3620  001806  5E29               	subwf	___fladd@b^0,f,c
  3621  001808  502E               	movf	(___fladd@a+1)^0,w,c
  3622  00180A  5A2A               	subwfb	(___fladd@b+1)^0,f,c
  3623  00180C  502F               	movf	(___fladd@a+2)^0,w,c
  3624  00180E  5A2B               	subwfb	(___fladd@b+2)^0,f,c
  3625  001810  5030               	movf	(___fladd@a+3)^0,w,c
  3626  001812  5A2C               	subwfb	(___fladd@b+3)^0,f,c
  3627  001814                     l2174:
  3628  001814  5029               	movf	___fladd@b^0,w,c
  3629  001816  102A               	iorwf	(___fladd@b+1)^0,w,c
  3630  001818  102B               	iorwf	(___fladd@b+2)^0,w,c
  3631  00181A  102C               	iorwf	(___fladd@b+3)^0,w,c
  3632  00181C  A4D8               	btfss	status,2,c
  3633  00181E  EF13  F00C         	goto	u7101
  3634  001822  EF15  F00C         	goto	u7100
  3635  001826                     u7101:
  3636  001826  EF4A  F00C         	goto	l7657
  3637  00182A                     u7100:
  3638  00182A  5038               	movf	___fladd@grs^0,w,c
  3639  00182C  A4D8               	btfss	status,2,c
  3640  00182E  EF1B  F00C         	goto	u7111
  3641  001832  EF1D  F00C         	goto	u7110
  3642  001836                     u7111:
  3643  001836  EF4A  F00C         	goto	l7657
  3644  00183A                     u7110:
  3645  00183A  0E00               	movlw	0
  3646  00183C  6E29               	movwf	?___fladd^0,c
  3647  00183E  0E00               	movlw	0
  3648  001840  6E2A               	movwf	(?___fladd+1)^0,c
  3649  001842  0E00               	movlw	0
  3650  001844  6E2B               	movwf	(?___fladd+2)^0,c
  3651  001846  0E00               	movlw	0
  3652  001848  6E2C               	movwf	(?___fladd+3)^0,c
  3653  00184A  EFE5  F00C         	goto	l2166
  3654  00184E                     l7641:
  3655  00184E  90D8               	bcf	status,0,c
  3656  001850  3629               	rlcf	___fladd@b^0,f,c
  3657  001852  362A               	rlcf	(___fladd@b+1)^0,f,c
  3658  001854  362B               	rlcf	(___fladd@b+2)^0,f,c
  3659  001856  362C               	rlcf	(___fladd@b+3)^0,f,c
  3660  001858  AE38               	btfss	___fladd@grs^0,7,c
  3661  00185A  EF31  F00C         	goto	u7121
  3662  00185E  EF33  F00C         	goto	u7120
  3663  001862                     u7121:
  3664  001862  EF34  F00C         	goto	l7647
  3665  001866                     u7120:
  3666  001866  8029               	bsf	___fladd@b^0,0,c
  3667  001868                     l7647:
  3668  001868  A038               	btfss	___fladd@grs^0,0,c
  3669  00186A  EF39  F00C         	goto	u7131
  3670  00186E  EF3B  F00C         	goto	u7130
  3671  001872                     u7131:
  3672  001872  EF3F  F00C         	goto	l7651
  3673  001876                     u7130:
  3674  001876  80D8               	bsf	status,0,c
  3675  001878  3638               	rlcf	___fladd@grs^0,f,c
  3676  00187A  EF41  F00C         	goto	l7653
  3677  00187E                     l7651:
  3678  00187E  90D8               	bcf	status,0,c
  3679  001880  3638               	rlcf	___fladd@grs^0,f,c
  3680  001882                     l7653:
  3681  001882  5037               	movf	___fladd@bexp^0,w,c
  3682  001884  B4D8               	btfsc	status,2,c
  3683  001886  EF47  F00C         	goto	u7141
  3684  00188A  EF49  F00C         	goto	u7140
  3685  00188E                     u7141:
  3686  00188E  EF4A  F00C         	goto	l7657
  3687  001892                     u7140:
  3688  001892  0637               	decf	___fladd@bexp^0,f,c
  3689  001894                     l7657:
  3690  001894  AE2B               	btfss	(___fladd@b+2)^0,7,c
  3691  001896  EF4F  F00C         	goto	u7151
  3692  00189A  EF51  F00C         	goto	u7150
  3693  00189E                     u7151:
  3694  00189E  EF27  F00C         	goto	l7641
  3695  0018A2                     u7150:
  3696  0018A2                     l7659:
  3697  0018A2  0E00               	movlw	0
  3698  0018A4  6E36               	movwf	___fladd@aexp^0,c
  3699  0018A6  AE38               	btfss	___fladd@grs^0,7,c
  3700  0018A8  EF58  F00C         	goto	u7161
  3701  0018AC  EF5A  F00C         	goto	u7160
  3702  0018B0                     u7161:
  3703  0018B0  EF72  F00C         	goto	l2183
  3704  0018B4                     u7160:
  3705  0018B4  C038  F031         	movff	___fladd@grs,??___fladd
  3706  0018B8  0E7F               	movlw	127
  3707  0018BA  1631               	andwf	??___fladd^0,f,c
  3708  0018BC  B4D8               	btfsc	status,2,c
  3709  0018BE  EF63  F00C         	goto	u7171
  3710  0018C2  EF65  F00C         	goto	u7170
  3711  0018C6                     u7171:
  3712  0018C6  EF69  F00C         	goto	l2184
  3713  0018CA                     u7170:
  3714  0018CA                     l7665:
  3715  0018CA  0E01               	movlw	1
  3716  0018CC  6E36               	movwf	___fladd@aexp^0,c
  3717  0018CE  EF72  F00C         	goto	l2183
  3718  0018D2                     l2184:
  3719  0018D2  A029               	btfss	___fladd@b^0,0,c
  3720  0018D4  EF6E  F00C         	goto	u7181
  3721  0018D8  EF70  F00C         	goto	u7180
  3722  0018DC                     u7181:
  3723  0018DC  EF72  F00C         	goto	l2183
  3724  0018E0                     u7180:
  3725  0018E0  EF65  F00C         	goto	l7665
  3726  0018E4                     l2183:
  3727  0018E4  5036               	movf	___fladd@aexp^0,w,c
  3728  0018E6  B4D8               	btfsc	status,2,c
  3729  0018E8  EF78  F00C         	goto	u7191
  3730  0018EC  EF7A  F00C         	goto	u7190
  3731  0018F0                     u7191:
  3732  0018F0  EFA5  F00C         	goto	l7677
  3733  0018F4                     u7190:
  3734  0018F4  0E01               	movlw	1
  3735  0018F6  2629               	addwf	___fladd@b^0,f,c
  3736  0018F8  0E00               	movlw	0
  3737  0018FA  222A               	addwfc	(___fladd@b+1)^0,f,c
  3738  0018FC  222B               	addwfc	(___fladd@b+2)^0,f,c
  3739  0018FE  222C               	addwfc	(___fladd@b+3)^0,f,c
  3740  001900  A02C               	btfss	(___fladd@b+3)^0,0,c
  3741  001902  EF85  F00C         	goto	u7201
  3742  001906  EF87  F00C         	goto	u7200
  3743  00190A                     u7201:
  3744  00190A  EFA5  F00C         	goto	l7677
  3745  00190E                     u7200:
  3746  00190E  C029  F031         	movff	___fladd@b,??___fladd
  3747  001912  C02A  F032         	movff	___fladd@b+1,??___fladd+1
  3748  001916  C02B  F033         	movff	___fladd@b+2,??___fladd+2
  3749  00191A  C02C  F034         	movff	___fladd@b+3,??___fladd+3
  3750  00191E  3434               	rlcf	(??___fladd+3)^0,w,c
  3751  001920  3234               	rrcf	(??___fladd+3)^0,f,c
  3752  001922  3233               	rrcf	(??___fladd+2)^0,f,c
  3753  001924  3232               	rrcf	(??___fladd+1)^0,f,c
  3754  001926  3231               	rrcf	??___fladd^0,f,c
  3755  001928  C031  F029         	movff	??___fladd,___fladd@b
  3756  00192C  C032  F02A         	movff	??___fladd+1,___fladd@b+1
  3757  001930  C033  F02B         	movff	??___fladd+2,___fladd@b+2
  3758  001934  C034  F02C         	movff	??___fladd+3,___fladd@b+3
  3759  001938  2837               	incf	___fladd@bexp^0,w,c
  3760  00193A  B4D8               	btfsc	status,2,c
  3761  00193C  EFA2  F00C         	goto	u7211
  3762  001940  EFA4  F00C         	goto	u7210
  3763  001944                     u7211:
  3764  001944  EFA5  F00C         	goto	l7677
  3765  001948                     u7210:
  3766  001948  2A37               	incf	___fladd@bexp^0,f,c
  3767  00194A                     l7677:
  3768  00194A  2837               	incf	___fladd@bexp^0,w,c
  3769  00194C  B4D8               	btfsc	status,2,c
  3770  00194E  EFAB  F00C         	goto	u7221
  3771  001952  EFAD  F00C         	goto	u7220
  3772  001956                     u7221:
  3773  001956  EFB5  F00C         	goto	l7681
  3774  00195A                     u7220:
  3775  00195A  5037               	movf	___fladd@bexp^0,w,c
  3776  00195C  A4D8               	btfss	status,2,c
  3777  00195E  EFB3  F00C         	goto	u7231
  3778  001962  EFB5  F00C         	goto	u7230
  3779  001966                     u7231:
  3780  001966  EFC7  F00C         	goto	l7685
  3781  00196A                     u7230:
  3782  00196A                     l7681:
  3783  00196A  0E00               	movlw	0
  3784  00196C  6E29               	movwf	___fladd@b^0,c
  3785  00196E  0E00               	movlw	0
  3786  001970  6E2A               	movwf	(___fladd@b+1)^0,c
  3787  001972  0E00               	movlw	0
  3788  001974  6E2B               	movwf	(___fladd@b+2)^0,c
  3789  001976  0E00               	movlw	0
  3790  001978  6E2C               	movwf	(___fladd@b+3)^0,c
  3791  00197A  5037               	movf	___fladd@bexp^0,w,c
  3792  00197C  A4D8               	btfss	status,2,c
  3793  00197E  EFC3  F00C         	goto	u7241
  3794  001982  EFC5  F00C         	goto	u7240
  3795  001986                     u7241:
  3796  001986  EFC7  F00C         	goto	l7685
  3797  00198A                     u7240:
  3798  00198A  0E00               	movlw	0
  3799  00198C  6E35               	movwf	___fladd@signs^0,c
  3800  00198E                     l7685:
  3801  00198E  A037               	btfss	___fladd@bexp^0,0,c
  3802  001990  EFCC  F00C         	goto	u7251
  3803  001994  EFCE  F00C         	goto	u7250
  3804  001998                     u7251:
  3805  001998  EFD1  F00C         	goto	l7689
  3806  00199C                     u7250:
  3807  00199C  8E2B               	bsf	(___fladd@b+2)^0,7,c
  3808  00199E  EFD2  F00C         	goto	l7691
  3809  0019A2                     l7689:
  3810  0019A2  9E2B               	bcf	(___fladd@b+2)^0,7,c
  3811  0019A4                     l7691:
  3812  0019A4  90D8               	bcf	status,0,c
  3813  0019A6  3037               	rrcf	___fladd@bexp^0,w,c
  3814  0019A8  6E2C               	movwf	(___fladd@b+3)^0,c
  3815  0019AA  AE35               	btfss	___fladd@signs^0,7,c
  3816  0019AC  EFDA  F00C         	goto	u7261
  3817  0019B0  EFDC  F00C         	goto	u7260
  3818  0019B4                     u7261:
  3819  0019B4  EFDD  F00C         	goto	l7697
  3820  0019B8                     u7260:
  3821  0019B8  8E2C               	bsf	(___fladd@b+3)^0,7,c
  3822  0019BA                     l7697:
  3823  0019BA  C029  F029         	movff	___fladd@b,?___fladd
  3824  0019BE  C02A  F02A         	movff	___fladd@b+1,?___fladd+1
  3825  0019C2  C02B  F02B         	movff	___fladd@b+2,?___fladd+2
  3826  0019C6  C02C  F02C         	movff	___fladd@b+3,?___fladd+3
  3827  0019CA                     l2166:
  3828  0019CA  0012               	return		;funcret
  3829  0019CC                     __end_of___fladd:
  3830                           	callstack 0
  3831                           
  3832 ;; *************** function _EUSART_ASYNC_TX_Init *****************
  3833 ;; Defined at:
  3834 ;;		line 213 in file "MCAL/usart/hal_usart.c"
  3835 ;; Parameters:    Size  Location     Type
  3836 ;;  _eusart         2    1[COMRAM] PTR const struct .
  3837 ;;		 -> usart_module_init@usart_obj(18), 
  3838 ;; Auto vars:     Size  Location     Type
  3839 ;;		None
  3840 ;; Return value:  Size  Location     Type
  3841 ;;                  1    wreg      void 
  3842 ;; Registers used:
  3843 ;;		wreg, fsr2l, fsr2h, status,2, status,0
  3844 ;; Tracked objects:
  3845 ;;		On entry : 0/0
  3846 ;;		On exit  : 0/0
  3847 ;;		Unchanged: 0/0
  3848 ;; Data sizes:     COMRAM   BANK0   BANK1   BANK2   BANK3   BANK4   BANK5   BANK6   BANK7   BANK8   BANK9  BANK10  BANK1
      +1  BANK12  BANK13  BANK14  BANK15
  3849 ;;      Params:         2       0       0       0       0       0       0       0       0       0       0       0       
      +0       0       0       0       0
  3850 ;;      Locals:         0       0       0       0       0       0       0       0       0       0       0       0       
      +0       0       0       0       0
  3851 ;;      Temps:          0       0       0       0       0       0       0       0       0       0       0       0       
      +0       0       0       0       0
  3852 ;;      Totals:         2       0       0       0       0       0       0       0       0       0       0       0       
      +0       0       0       0       0
  3853 ;;Total ram usage:        2 bytes
  3854 ;; Hardware stack levels used: 1
  3855 ;; Hardware stack levels required when called: 2
  3856 ;; This function calls:
  3857 ;;		Nothing
  3858 ;; This function is called by:
  3859 ;;		_EUSART_ASYNC_Init
  3860 ;; This function uses a non-reentrant model
  3861 ;;
  3862                           
  3863                           	psect	text14
  3864  002856                     __ptext14:
  3865                           	callstack 0
  3866  002856                     _EUSART_ASYNC_TX_Init:
  3867                           	callstack 25
  3868  002856                     
  3869                           ;MCAL/usart/hal_usart.c: 214:     if(1 == _eusart->usart_tx_cfg.usart_tx_enable){
  3870  002856  EE20 F006          	lfsr	2,6
  3871  00285A  5002               	movf	EUSART_ASYNC_TX_Init@_eusart^0,w,c
  3872  00285C  26D9               	addwf	fsr2l,f,c
  3873  00285E  5003               	movf	(EUSART_ASYNC_TX_Init@_eusart+1)^0,w,c
  3874  002860  22DA               	addwfc	fsr2h,f,c
  3875  002862  A0DF               	btfss	indf2,0,c
  3876  002864  EF36  F014         	goto	u7671
  3877  002868  EF38  F014         	goto	u7670
  3878  00286C                     u7671:
  3879  00286C  EF84  F014         	goto	l1542
  3880  002870                     u7670:
  3881  002870                     
  3882                           ;MCAL/usart/hal_usart.c: 215:         TXSTAbits.TXEN = 1;
  3883  002870  8AAC               	bsf	172,5,c	;volatile
  3884  002872                     
  3885                           ;MCAL/usart/hal_usart.c: 216:         EUSART_TxInterruptHandler = _eusart->EUSART_TxDefa
      +                          ultInterruptHandler;
  3886  002872  EE20 F00A          	lfsr	2,10
  3887  002876  5002               	movf	EUSART_ASYNC_TX_Init@_eusart^0,w,c
  3888  002878  26D9               	addwf	fsr2l,f,c
  3889  00287A  5003               	movf	(EUSART_ASYNC_TX_Init@_eusart+1)^0,w,c
  3890  00287C  22DA               	addwfc	fsr2h,f,c
  3891  00287E  CFDE F08A          	movff	postinc2,_EUSART_TxInterruptHandler
  3892  002882  CFDD F08B          	movff	postdec2,_EUSART_TxInterruptHandler+1
  3893                           
  3894                           ;MCAL/usart/hal_usart.c: 218:         if(1 == _eusart->usart_tx_cfg.usart_tx_interrupt_e
      +                          nable){
  3895  002886  EE20 F006          	lfsr	2,6
  3896  00288A  5002               	movf	EUSART_ASYNC_TX_Init@_eusart^0,w,c
  3897  00288C  26D9               	addwf	fsr2l,f,c
  3898  00288E  5003               	movf	(EUSART_ASYNC_TX_Init@_eusart+1)^0,w,c
  3899  002890  22DA               	addwfc	fsr2h,f,c
  3900  002892  A2DF               	btfss	indf2,1,c
  3901  002894  EF4E  F014         	goto	u7681
  3902  002898  EF50  F014         	goto	u7680
  3903  00289C                     u7681:
  3904  00289C  EF56  F014         	goto	l7971
  3905  0028A0                     u7680:
  3906  0028A0                     
  3907                           ;MCAL/usart/hal_usart.c: 219:             PIE1bits.TXIE = 1;
  3908  0028A0  889D               	bsf	157,4,c	;volatile
  3909                           
  3910                           ;MCAL/usart/hal_usart.c: 222:             (PIE1bits.TXIE = 1);
  3911  0028A2  889D               	bsf	157,4,c	;volatile
  3912                           
  3913                           ;MCAL/usart/hal_usart.c: 238:             (INTCONbits.GIE = 1);
  3914  0028A4  8EF2               	bsf	242,7,c	;volatile
  3915                           
  3916                           ;MCAL/usart/hal_usart.c: 239:             (INTCONbits.PEIE = 1);
  3917  0028A6  8CF2               	bsf	242,6,c	;volatile
  3918                           
  3919                           ;MCAL/usart/hal_usart.c: 242:         }
  3920  0028A8  EF64  F014         	goto	l7975
  3921  0028AC                     l7971:
  3922  0028AC  EE20 F006          	lfsr	2,6
  3923  0028B0  5002               	movf	EUSART_ASYNC_TX_Init@_eusart^0,w,c
  3924  0028B2  26D9               	addwf	fsr2l,f,c
  3925  0028B4  5003               	movf	(EUSART_ASYNC_TX_Init@_eusart+1)^0,w,c
  3926  0028B6  22DA               	addwfc	fsr2h,f,c
  3927  0028B8  B2DF               	btfsc	indf2,1,c
  3928  0028BA  EF61  F014         	goto	u7691
  3929  0028BE  EF63  F014         	goto	u7690
  3930  0028C2                     u7691:
  3931  0028C2  EF64  F014         	goto	l7975
  3932  0028C6                     u7690:
  3933  0028C6                     
  3934                           ;MCAL/usart/hal_usart.c: 244:             PIE1bits.TXIE = 0;
  3935  0028C6  989D               	bcf	157,4,c	;volatile
  3936  0028C8                     l7975:
  3937                           
  3938                           ;MCAL/usart/hal_usart.c: 249:         if(1 == _eusart->usart_tx_cfg.usart_tx_9bit_enable
      +                          ){
  3939  0028C8  EE20 F006          	lfsr	2,6
  3940  0028CC  5002               	movf	EUSART_ASYNC_TX_Init@_eusart^0,w,c
  3941  0028CE  26D9               	addwf	fsr2l,f,c
  3942  0028D0  5003               	movf	(EUSART_ASYNC_TX_Init@_eusart+1)^0,w,c
  3943  0028D2  22DA               	addwfc	fsr2h,f,c
  3944  0028D4  A4DF               	btfss	indf2,2,c
  3945  0028D6  EF6F  F014         	goto	u7701
  3946  0028DA  EF71  F014         	goto	u7700
  3947  0028DE                     u7701:
  3948  0028DE  EF74  F014         	goto	l7979
  3949  0028E2                     u7700:
  3950  0028E2                     
  3951                           ;MCAL/usart/hal_usart.c: 250:             TXSTAbits.TX9 = 1;
  3952  0028E2  8CAC               	bsf	172,6,c	;volatile
  3953                           
  3954                           ;MCAL/usart/hal_usart.c: 251:         }
  3955  0028E4  EF84  F014         	goto	l1542
  3956  0028E8                     l7979:
  3957  0028E8  EE20 F006          	lfsr	2,6
  3958  0028EC  5002               	movf	EUSART_ASYNC_TX_Init@_eusart^0,w,c
  3959  0028EE  26D9               	addwf	fsr2l,f,c
  3960  0028F0  5003               	movf	(EUSART_ASYNC_TX_Init@_eusart+1)^0,w,c
  3961  0028F2  22DA               	addwfc	fsr2h,f,c
  3962  0028F4  B4DF               	btfsc	indf2,2,c
  3963  0028F6  EF7F  F014         	goto	u7711
  3964  0028FA  EF81  F014         	goto	u7710
  3965  0028FE                     u7711:
  3966  0028FE  EF84  F014         	goto	l1538
  3967  002902                     u7710:
  3968  002902                     
  3969                           ;MCAL/usart/hal_usart.c: 253:             TXSTAbits.TX9 = 0;
  3970  002902  9CAC               	bcf	172,6,c	;volatile
  3971                           
  3972                           ;MCAL/usart/hal_usart.c: 254:         }
  3973  002904  EF84  F014         	goto	l1542
  3974  002908                     l1538:
  3975  002908                     l1542:
  3976  002908  0012               	return		;funcret
  3977  00290A                     __end_of_EUSART_ASYNC_TX_Init:
  3978                           	callstack 0
  3979                           
  3980 ;; *************** function _EUSART_ASYNC_RX_Init *****************
  3981 ;; Defined at:
  3982 ;;		line 260 in file "MCAL/usart/hal_usart.c"
  3983 ;; Parameters:    Size  Location     Type
  3984 ;;  _eusart         2    1[COMRAM] PTR const struct .
  3985 ;;		 -> usart_module_init@usart_obj(18), 
  3986 ;; Auto vars:     Size  Location     Type
  3987 ;;		None
  3988 ;; Return value:  Size  Location     Type
  3989 ;;                  1    wreg      void 
  3990 ;; Registers used:
  3991 ;;		wreg, fsr2l, fsr2h, status,2, status,0
  3992 ;; Tracked objects:
  3993 ;;		On entry : 0/0
  3994 ;;		On exit  : 0/0
  3995 ;;		Unchanged: 0/0
  3996 ;; Data sizes:     COMRAM   BANK0   BANK1   BANK2   BANK3   BANK4   BANK5   BANK6   BANK7   BANK8   BANK9  BANK10  BANK1
      +1  BANK12  BANK13  BANK14  BANK15
  3997 ;;      Params:         2       0       0       0       0       0       0       0       0       0       0       0       
      +0       0       0       0       0
  3998 ;;      Locals:         0       0       0       0       0       0       0       0       0       0       0       0       
      +0       0       0       0       0
  3999 ;;      Temps:          0       0       0       0       0       0       0       0       0       0       0       0       
      +0       0       0       0       0
  4000 ;;      Totals:         2       0       0       0       0       0       0       0       0       0       0       0       
      +0       0       0       0       0
  4001 ;;Total ram usage:        2 bytes
  4002 ;; Hardware stack levels used: 1
  4003 ;; Hardware stack levels required when called: 2
  4004 ;; This function calls:
  4005 ;;		Nothing
  4006 ;; This function is called by:
  4007 ;;		_EUSART_ASYNC_Init
  4008 ;; This function uses a non-reentrant model
  4009 ;;
  4010                           
  4011                           	psect	text15
  4012  00277A                     __ptext15:
  4013                           	callstack 0
  4014  00277A                     _EUSART_ASYNC_RX_Init:
  4015                           	callstack 25
  4016  00277A                     
  4017                           ;MCAL/usart/hal_usart.c: 261:     if(1 == _eusart->usart_rx_cfg.usart_rx_enable){
  4018  00277A  EE20 F008          	lfsr	2,8
  4019  00277E  5002               	movf	EUSART_ASYNC_RX_Init@_eusart^0,w,c
  4020  002780  26D9               	addwf	fsr2l,f,c
  4021  002782  5003               	movf	(EUSART_ASYNC_RX_Init@_eusart+1)^0,w,c
  4022  002784  22DA               	addwfc	fsr2h,f,c
  4023  002786  A0DF               	btfss	indf2,0,c
  4024  002788  EFC8  F013         	goto	u7721
  4025  00278C  EFCA  F013         	goto	u7720
  4026  002790                     u7721:
  4027  002790  EF2A  F014         	goto	l1555
  4028  002794                     u7720:
  4029  002794                     
  4030                           ;MCAL/usart/hal_usart.c: 262:         RCSTAbits.CREN = 1;
  4031  002794  88AB               	bsf	171,4,c	;volatile
  4032  002796                     
  4033                           ;MCAL/usart/hal_usart.c: 263:         EUSART_RxInterruptHandler = _eusart->EUSART_RxDefa
      +                          ultInterruptHandler;
  4034  002796  EE20 F00C          	lfsr	2,12
  4035  00279A  5002               	movf	EUSART_ASYNC_RX_Init@_eusart^0,w,c
  4036  00279C  26D9               	addwf	fsr2l,f,c
  4037  00279E  5003               	movf	(EUSART_ASYNC_RX_Init@_eusart+1)^0,w,c
  4038  0027A0  22DA               	addwfc	fsr2h,f,c
  4039  0027A2  CFDE F088          	movff	postinc2,_EUSART_RxInterruptHandler
  4040  0027A6  CFDD F089          	movff	postdec2,_EUSART_RxInterruptHandler+1
  4041                           
  4042                           ;MCAL/usart/hal_usart.c: 264:         EUSART_FramingErrorHandler = _eusart->EUSART_Frami
      +                          ngErrorHandler;
  4043  0027AA  EE20 F00E          	lfsr	2,14
  4044  0027AE  5002               	movf	EUSART_ASYNC_RX_Init@_eusart^0,w,c
  4045  0027B0  26D9               	addwf	fsr2l,f,c
  4046  0027B2  5003               	movf	(EUSART_ASYNC_RX_Init@_eusart+1)^0,w,c
  4047  0027B4  22DA               	addwfc	fsr2h,f,c
  4048  0027B6  CFDE F086          	movff	postinc2,_EUSART_FramingErrorHandler
  4049  0027BA  CFDD F087          	movff	postdec2,_EUSART_FramingErrorHandler+1
  4050                           
  4051                           ;MCAL/usart/hal_usart.c: 265:         EUSART_OverrunErrorHandler = _eusart->EUSART_Overr
      +                          unErrorHandler;
  4052  0027BE  EE20 F010          	lfsr	2,16
  4053  0027C2  5002               	movf	EUSART_ASYNC_RX_Init@_eusart^0,w,c
  4054  0027C4  26D9               	addwf	fsr2l,f,c
  4055  0027C6  5003               	movf	(EUSART_ASYNC_RX_Init@_eusart+1)^0,w,c
  4056  0027C8  22DA               	addwfc	fsr2h,f,c
  4057  0027CA  CFDE F084          	movff	postinc2,_EUSART_OverrunErrorHandler
  4058  0027CE  CFDD F085          	movff	postdec2,_EUSART_OverrunErrorHandler+1
  4059                           
  4060                           ;MCAL/usart/hal_usart.c: 267:         if(1 == _eusart->usart_rx_cfg.usart_rx_interrupt_e
      +                          nable){
  4061  0027D2  EE20 F008          	lfsr	2,8
  4062  0027D6  5002               	movf	EUSART_ASYNC_RX_Init@_eusart^0,w,c
  4063  0027D8  26D9               	addwf	fsr2l,f,c
  4064  0027DA  5003               	movf	(EUSART_ASYNC_RX_Init@_eusart+1)^0,w,c
  4065  0027DC  22DA               	addwfc	fsr2h,f,c
  4066  0027DE  A2DF               	btfss	indf2,1,c
  4067  0027E0  EFF4  F013         	goto	u7731
  4068  0027E4  EFF6  F013         	goto	u7730
  4069  0027E8                     u7731:
  4070  0027E8  EFFC  F013         	goto	l7991
  4071  0027EC                     u7730:
  4072  0027EC                     
  4073                           ;MCAL/usart/hal_usart.c: 268:             PIE1bits.RCIE = 1;
  4074  0027EC  8A9D               	bsf	157,5,c	;volatile
  4075                           
  4076                           ;MCAL/usart/hal_usart.c: 271:             (PIE1bits.RCIE = 1);
  4077  0027EE  8A9D               	bsf	157,5,c	;volatile
  4078                           
  4079                           ;MCAL/usart/hal_usart.c: 287:             (INTCONbits.GIE = 1);
  4080  0027F0  8EF2               	bsf	242,7,c	;volatile
  4081                           
  4082                           ;MCAL/usart/hal_usart.c: 288:             (INTCONbits.PEIE = 1);
  4083  0027F2  8CF2               	bsf	242,6,c	;volatile
  4084                           
  4085                           ;MCAL/usart/hal_usart.c: 291:         }
  4086  0027F4  EF0A  F014         	goto	l7995
  4087  0027F8                     l7991:
  4088  0027F8  EE20 F008          	lfsr	2,8
  4089  0027FC  5002               	movf	EUSART_ASYNC_RX_Init@_eusart^0,w,c
  4090  0027FE  26D9               	addwf	fsr2l,f,c
  4091  002800  5003               	movf	(EUSART_ASYNC_RX_Init@_eusart+1)^0,w,c
  4092  002802  22DA               	addwfc	fsr2h,f,c
  4093  002804  B2DF               	btfsc	indf2,1,c
  4094  002806  EF07  F014         	goto	u7741
  4095  00280A  EF09  F014         	goto	u7740
  4096  00280E                     u7741:
  4097  00280E  EF0A  F014         	goto	l7995
  4098  002812                     u7740:
  4099  002812                     
  4100                           ;MCAL/usart/hal_usart.c: 293:             PIE1bits.RCIE = 0;
  4101  002812  9A9D               	bcf	157,5,c	;volatile
  4102  002814                     l7995:
  4103                           
  4104                           ;MCAL/usart/hal_usart.c: 298:         if(1 == _eusart->usart_rx_cfg.usart_rx_9bit_enable
      +                          ){
  4105  002814  EE20 F008          	lfsr	2,8
  4106  002818  5002               	movf	EUSART_ASYNC_RX_Init@_eusart^0,w,c
  4107  00281A  26D9               	addwf	fsr2l,f,c
  4108  00281C  5003               	movf	(EUSART_ASYNC_RX_Init@_eusart+1)^0,w,c
  4109  00281E  22DA               	addwfc	fsr2h,f,c
  4110  002820  A4DF               	btfss	indf2,2,c
  4111  002822  EF15  F014         	goto	u7751
  4112  002826  EF17  F014         	goto	u7750
  4113  00282A                     u7751:
  4114  00282A  EF1A  F014         	goto	l7999
  4115  00282E                     u7750:
  4116  00282E                     
  4117                           ;MCAL/usart/hal_usart.c: 299:             RCSTAbits.RX9 = 1;
  4118  00282E  8CAB               	bsf	171,6,c	;volatile
  4119                           
  4120                           ;MCAL/usart/hal_usart.c: 300:         }
  4121  002830  EF2A  F014         	goto	l1555
  4122  002834                     l7999:
  4123  002834  EE20 F008          	lfsr	2,8
  4124  002838  5002               	movf	EUSART_ASYNC_RX_Init@_eusart^0,w,c
  4125  00283A  26D9               	addwf	fsr2l,f,c
  4126  00283C  5003               	movf	(EUSART_ASYNC_RX_Init@_eusart+1)^0,w,c
  4127  00283E  22DA               	addwfc	fsr2h,f,c
  4128  002840  B4DF               	btfsc	indf2,2,c
  4129  002842  EF25  F014         	goto	u7761
  4130  002846  EF27  F014         	goto	u7760
  4131  00284A                     u7761:
  4132  00284A  EF2A  F014         	goto	l1551
  4133  00284E                     u7760:
  4134  00284E                     
  4135                           ;MCAL/usart/hal_usart.c: 302:             RCSTAbits.RX9 = 0;
  4136  00284E  9CAB               	bcf	171,6,c	;volatile
  4137                           
  4138                           ;MCAL/usart/hal_usart.c: 303:         }
  4139  002850  EF2A  F014         	goto	l1555
  4140  002854                     l1551:
  4141  002854                     l1555:
  4142  002854  0012               	return		;funcret
  4143  002856                     __end_of_EUSART_ASYNC_RX_Init:
  4144                           	callstack 0
  4145                           
  4146 ;; *************** function _lcd_4bit_initialize *****************
  4147 ;; Defined at:
  4148 ;;		line 17 in file "ECU/Chr_LCD/ecu_chr_lcd.c"
  4149 ;; Parameters:    Size  Location     Type
  4150 ;;  lcd             2   19[COMRAM] PTR const struct .
  4151 ;;		 -> lcd_1(6), 
  4152 ;; Auto vars:     Size  Location     Type
  4153 ;;  ret             1   24[COMRAM] unsigned char 
  4154 ;;  l_data_pins_    1   23[COMRAM] unsigned char 
  4155 ;; Return value:  Size  Location     Type
  4156 ;;                  1    wreg      unsigned char 
  4157 ;; Registers used:
  4158 ;;		wreg, fsr2l, fsr2h, status,2, status,0, prodl, prodh, cstack
  4159 ;; Tracked objects:
  4160 ;;		On entry : 0/0
  4161 ;;		On exit  : 0/0
  4162 ;;		Unchanged: 0/0
  4163 ;; Data sizes:     COMRAM   BANK0   BANK1   BANK2   BANK3   BANK4   BANK5   BANK6   BANK7   BANK8   BANK9  BANK10  BANK1
      +1  BANK12  BANK13  BANK14  BANK15
  4164 ;;      Params:         2       0       0       0       0       0       0       0       0       0       0       0       
      +0       0       0       0       0
  4165 ;;      Locals:         2       0       0       0       0       0       0       0       0       0       0       0       
      +0       0       0       0       0
  4166 ;;      Temps:          2       0       0       0       0       0       0       0       0       0       0       0       
      +0       0       0       0       0
  4167 ;;      Totals:         6       0       0       0       0       0       0       0       0       0       0       0       
      +0       0       0       0       0
  4168 ;;Total ram usage:        6 bytes
  4169 ;; Hardware stack levels used: 1
  4170 ;; Hardware stack levels required when called: 5
  4171 ;; This function calls:
  4172 ;;		_gpio_pin_initialize
  4173 ;;		_lcd_4bit_send_command
  4174 ;; This function is called by:
  4175 ;;		_app_initialize
  4176 ;; This function uses a non-reentrant model
  4177 ;;
  4178                           
  4179                           	psect	text16
  4180  002676                     __ptext16:
  4181                           	callstack 0
  4182  002676                     _lcd_4bit_initialize:
  4183                           	callstack 24
  4184  002676                     
  4185                           ;ECU/Chr_LCD/ecu_chr_lcd.c: 19:     uint8 l_data_pins_counter = 0;
  4186  002676  0E00               	movlw	0
  4187  002678  6E18               	movwf	lcd_4bit_initialize@l_data_pins_counter^0,c
  4188  00267A                     
  4189                           ;ECU/Chr_LCD/ecu_chr_lcd.c: 20:     if(((void*)0) == lcd){
  4190  00267A  5014               	movf	lcd_4bit_initialize@lcd^0,w,c
  4191  00267C  1015               	iorwf	(lcd_4bit_initialize@lcd+1)^0,w,c
  4192  00267E  A4D8               	btfss	status,2,c
  4193  002680  EF44  F013         	goto	u4981
  4194  002684  EF46  F013         	goto	u4980
  4195  002688                     u4981:
  4196  002688  EF4A  F013         	goto	l5953
  4197  00268C                     u4980:
  4198  00268C                     
  4199                           ;ECU/Chr_LCD/ecu_chr_lcd.c: 21:         ret = (Std_ReturnType)0x00;
  4200  00268C  0E00               	movlw	0
  4201  00268E  6E19               	movwf	lcd_4bit_initialize@ret^0,c
  4202                           
  4203                           ;ECU/Chr_LCD/ecu_chr_lcd.c: 22:     }
  4204  002690  EFBB  F013         	goto	l5985
  4205  002694                     l5953:
  4206                           
  4207                           ;ECU/Chr_LCD/ecu_chr_lcd.c: 24:         ret = gpio_pin_initialize(&(lcd->lcd_rs));
  4208  002694  C014  F00C         	movff	lcd_4bit_initialize@lcd,gpio_pin_initialize@_pin_config
  4209  002698  C015  F00D         	movff	lcd_4bit_initialize@lcd+1,gpio_pin_initialize@_pin_config+1
  4210  00269C  EC83  F016         	call	_gpio_pin_initialize	;wreg free
  4211  0026A0  6E19               	movwf	lcd_4bit_initialize@ret^0,c
  4212                           
  4213                           ;ECU/Chr_LCD/ecu_chr_lcd.c: 25:         ret = gpio_pin_initialize(&(lcd->lcd_en));
  4214  0026A2  0E01               	movlw	1
  4215  0026A4  2414               	addwf	lcd_4bit_initialize@lcd^0,w,c
  4216  0026A6  6E0C               	movwf	gpio_pin_initialize@_pin_config^0,c
  4217  0026A8  0E00               	movlw	0
  4218  0026AA  2015               	addwfc	(lcd_4bit_initialize@lcd+1)^0,w,c
  4219  0026AC  6E0D               	movwf	(gpio_pin_initialize@_pin_config+1)^0,c
  4220  0026AE  EC83  F016         	call	_gpio_pin_initialize	;wreg free
  4221  0026B2  6E19               	movwf	lcd_4bit_initialize@ret^0,c
  4222  0026B4                     
  4223                           ;ECU/Chr_LCD/ecu_chr_lcd.c: 26:         for(l_data_pins_counter = 0; l_data_pins_counter
      +                           < 4; l_data_pins_counter++){
  4224  0026B4  0E00               	movlw	0
  4225  0026B6  6E18               	movwf	lcd_4bit_initialize@l_data_pins_counter^0,c
  4226  0026B8                     l5961:
  4227  0026B8  5018               	movf	lcd_4bit_initialize@l_data_pins_counter^0,w,c
  4228  0026BA  2414               	addwf	lcd_4bit_initialize@lcd^0,w,c
  4229  0026BC  6E16               	movwf	??_lcd_4bit_initialize^0,c
  4230  0026BE  0E00               	movlw	0
  4231  0026C0  2015               	addwfc	(lcd_4bit_initialize@lcd+1)^0,w,c
  4232  0026C2  6E17               	movwf	(??_lcd_4bit_initialize+1)^0,c
  4233  0026C4  0E02               	movlw	2
  4234  0026C6  2416               	addwf	??_lcd_4bit_initialize^0,w,c
  4235  0026C8  6E0C               	movwf	gpio_pin_initialize@_pin_config^0,c
  4236  0026CA  0E00               	movlw	0
  4237  0026CC  2017               	addwfc	(??_lcd_4bit_initialize+1)^0,w,c
  4238  0026CE  6E0D               	movwf	(gpio_pin_initialize@_pin_config+1)^0,c
  4239  0026D0  EC83  F016         	call	_gpio_pin_initialize	;wreg free
  4240  0026D4                     
  4241                           ;ECU/Chr_LCD/ecu_chr_lcd.c: 28:         }
  4242  0026D4  2A18               	incf	lcd_4bit_initialize@l_data_pins_counter^0,f,c
  4243  0026D6  0E03               	movlw	3
  4244  0026D8  6418               	cpfsgt	lcd_4bit_initialize@l_data_pins_counter^0,c
  4245  0026DA  EF71  F013         	goto	u4991
  4246  0026DE  EF73  F013         	goto	u4990
  4247  0026E2                     u4991:
  4248  0026E2  EF5C  F013         	goto	l5961
  4249  0026E6                     u4990:
  4250  0026E6                     
  4251                           ;ECU/Chr_LCD/ecu_chr_lcd.c: 30:         _delay((unsigned long)((20)*(8000000UL/4000.0)))
      +                          ;
  4252  0026E6  0E34               	movlw	52
  4253  0026E8  6E16               	movwf	??_lcd_4bit_initialize^0,c
  4254  0026EA  0EF2               	movlw	242
  4255  0026EC                     u7887:
  4256  0026EC  2EE8               	decfsz	wreg,f,c
  4257  0026EE  D7FE               	bra	u7887
  4258  0026F0  2E16               	decfsz	??_lcd_4bit_initialize^0,f,c
  4259  0026F2  D7FC               	bra	u7887
  4260  0026F4  C014  F010         	movff	lcd_4bit_initialize@lcd,lcd_4bit_send_command@lcd
  4261  0026F8  C015  F011         	movff	lcd_4bit_initialize@lcd+1,lcd_4bit_send_command@lcd+1
  4262  0026FC  0E33               	movlw	51
  4263  0026FE  6E12               	movwf	lcd_4bit_send_command@command^0,c
  4264  002700  EC4A  F016         	call	_lcd_4bit_send_command	;wreg free
  4265  002704  C014  F010         	movff	lcd_4bit_initialize@lcd,lcd_4bit_send_command@lcd
  4266  002708  C015  F011         	movff	lcd_4bit_initialize@lcd+1,lcd_4bit_send_command@lcd+1
  4267  00270C  0E32               	movlw	50
  4268  00270E  6E12               	movwf	lcd_4bit_send_command@command^0,c
  4269  002710  EC4A  F016         	call	_lcd_4bit_send_command	;wreg free
  4270  002714  C014  F010         	movff	lcd_4bit_initialize@lcd,lcd_4bit_send_command@lcd
  4271  002718  C015  F011         	movff	lcd_4bit_initialize@lcd+1,lcd_4bit_send_command@lcd+1
  4272  00271C  0E28               	movlw	40
  4273  00271E  6E12               	movwf	lcd_4bit_send_command@command^0,c
  4274  002720  EC4A  F016         	call	_lcd_4bit_send_command	;wreg free
  4275  002724  C014  F010         	movff	lcd_4bit_initialize@lcd,lcd_4bit_send_command@lcd
  4276  002728  C015  F011         	movff	lcd_4bit_initialize@lcd+1,lcd_4bit_send_command@lcd+1
  4277  00272C  0E01               	movlw	1
  4278  00272E  6E12               	movwf	lcd_4bit_send_command@command^0,c
  4279  002730  EC4A  F016         	call	_lcd_4bit_send_command	;wreg free
  4280  002734  C014  F010         	movff	lcd_4bit_initialize@lcd,lcd_4bit_send_command@lcd
  4281  002738  C015  F011         	movff	lcd_4bit_initialize@lcd+1,lcd_4bit_send_command@lcd+1
  4282  00273C  0E02               	movlw	2
  4283  00273E  6E12               	movwf	lcd_4bit_send_command@command^0,c
  4284  002740  EC4A  F016         	call	_lcd_4bit_send_command	;wreg free
  4285  002744  C014  F010         	movff	lcd_4bit_initialize@lcd,lcd_4bit_send_command@lcd
  4286  002748  C015  F011         	movff	lcd_4bit_initialize@lcd+1,lcd_4bit_send_command@lcd+1
  4287  00274C  0E06               	movlw	6
  4288  00274E  6E12               	movwf	lcd_4bit_send_command@command^0,c
  4289  002750  EC4A  F016         	call	_lcd_4bit_send_command	;wreg free
  4290  002754  C014  F010         	movff	lcd_4bit_initialize@lcd,lcd_4bit_send_command@lcd
  4291  002758  C015  F011         	movff	lcd_4bit_initialize@lcd+1,lcd_4bit_send_command@lcd+1
  4292  00275C  0E0C               	movlw	12
  4293  00275E  6E12               	movwf	lcd_4bit_send_command@command^0,c
  4294  002760  EC4A  F016         	call	_lcd_4bit_send_command	;wreg free
  4295  002764                     
  4296                           ;ECU/Chr_LCD/ecu_chr_lcd.c: 38:         ret = lcd_4bit_send_command(lcd, 0X28);
  4297  002764  C014  F010         	movff	lcd_4bit_initialize@lcd,lcd_4bit_send_command@lcd
  4298  002768  C015  F011         	movff	lcd_4bit_initialize@lcd+1,lcd_4bit_send_command@lcd+1
  4299  00276C  0E28               	movlw	40
  4300  00276E  6E12               	movwf	lcd_4bit_send_command@command^0,c
  4301  002770  EC4A  F016         	call	_lcd_4bit_send_command	;wreg free
  4302  002774  6E19               	movwf	lcd_4bit_initialize@ret^0,c
  4303  002776                     l5985:
  4304                           
  4305                           ;ECU/Chr_LCD/ecu_chr_lcd.c: 52:     return ret;
  4306  002776  5019               	movf	lcd_4bit_initialize@ret^0,w,c
  4307  002778  0012               	return		;funcret
  4308  00277A                     __end_of_lcd_4bit_initialize:
  4309                           	callstack 0
  4310                           
  4311 ;; *************** function _lcd_4bit_send_command *****************
  4312 ;; Defined at:
  4313 ;;		line 55 in file "ECU/Chr_LCD/ecu_chr_lcd.c"
  4314 ;; Parameters:    Size  Location     Type
  4315 ;;  lcd             2   15[COMRAM] PTR const struct .
  4316 ;;		 -> lcd_1(6), 
  4317 ;;  command         1   17[COMRAM] unsigned char 
  4318 ;; Auto vars:     Size  Location     Type
  4319 ;;  ret             1   18[COMRAM] unsigned char 
  4320 ;; Return value:  Size  Location     Type
  4321 ;;                  1    wreg      unsigned char 
  4322 ;; Registers used:
  4323 ;;		wreg, fsr2l, fsr2h, status,2, status,0, prodl, prodh, cstack
  4324 ;; Tracked objects:
  4325 ;;		On entry : 0/0
  4326 ;;		On exit  : 0/0
  4327 ;;		Unchanged: 0/0
  4328 ;; Data sizes:     COMRAM   BANK0   BANK1   BANK2   BANK3   BANK4   BANK5   BANK6   BANK7   BANK8   BANK9  BANK10  BANK1
      +1  BANK12  BANK13  BANK14  BANK15
  4329 ;;      Params:         3       0       0       0       0       0       0       0       0       0       0       0       
      +0       0       0       0       0
  4330 ;;      Locals:         1       0       0       0       0       0       0       0       0       0       0       0       
      +0       0       0       0       0
  4331 ;;      Temps:          0       0       0       0       0       0       0       0       0       0       0       0       
      +0       0       0       0       0
  4332 ;;      Totals:         4       0       0       0       0       0       0       0       0       0       0       0       
      +0       0       0       0       0
  4333 ;;Total ram usage:        4 bytes
  4334 ;; Hardware stack levels used: 1
  4335 ;; Hardware stack levels required when called: 4
  4336 ;; This function calls:
  4337 ;;		_gpio_pin_write_logic
  4338 ;;		_lcd_4bit_send_enable_signal
  4339 ;;		_lcd_send_4bits
  4340 ;; This function is called by:
  4341 ;;		_lcd_4bit_initialize
  4342 ;;		_lcd_4bit_set_cursor
  4343 ;;		_lcd_4bit_send_custome_char
  4344 ;;		_lcd_8bit_initialize
  4345 ;; This function uses a non-reentrant model
  4346 ;;
  4347                           
  4348                           	psect	text17
  4349  002C94                     __ptext17:
  4350                           	callstack 0
  4351  002C94                     _lcd_4bit_send_command:
  4352                           	callstack 24
  4353  002C94                     
  4354                           ;ECU/Chr_LCD/ecu_chr_lcd.c: 58:     if(((void*)0) == lcd){
  4355  002C94  5010               	movf	lcd_4bit_send_command@lcd^0,w,c
  4356  002C96  1011               	iorwf	(lcd_4bit_send_command@lcd+1)^0,w,c
  4357  002C98  A4D8               	btfss	status,2,c
  4358  002C9A  EF51  F016         	goto	u4961
  4359  002C9E  EF53  F016         	goto	u4960
  4360  002CA2                     u4961:
  4361  002CA2  EF57  F016         	goto	l5925
  4362  002CA6                     u4960:
  4363  002CA6                     
  4364                           ;ECU/Chr_LCD/ecu_chr_lcd.c: 59:         ret = (Std_ReturnType)0x00;
  4365  002CA6  0E00               	movlw	0
  4366  002CA8  6E13               	movwf	lcd_4bit_send_command@ret^0,c
  4367                           
  4368                           ;ECU/Chr_LCD/ecu_chr_lcd.c: 60:     }
  4369  002CAA  EF81  F016         	goto	l5927
  4370  002CAE                     l5925:
  4371                           
  4372                           ;ECU/Chr_LCD/ecu_chr_lcd.c: 62:         ret = gpio_pin_write_logic(&(lcd->lcd_rs), GPIO_
      +                          LOW);
  4373  002CAE  C010  F002         	movff	lcd_4bit_send_command@lcd,gpio_pin_write_logic@_pin_config
  4374  002CB2  C011  F003         	movff	lcd_4bit_send_command@lcd+1,gpio_pin_write_logic@_pin_config+1
  4375  002CB6  0E00               	movlw	0
  4376  002CB8  6E04               	movwf	gpio_pin_write_logic@logic^0,c
  4377  002CBA  EC22  F012         	call	_gpio_pin_write_logic	;wreg free
  4378  002CBE  6E13               	movwf	lcd_4bit_send_command@ret^0,c
  4379                           
  4380                           ;ECU/Chr_LCD/ecu_chr_lcd.c: 63:         ret = lcd_send_4bits(lcd, (command >> 4));
  4381  002CC0  C010  F00C         	movff	lcd_4bit_send_command@lcd,lcd_send_4bits@lcd
  4382  002CC4  C011  F00D         	movff	lcd_4bit_send_command@lcd+1,lcd_send_4bits@lcd+1
  4383  002CC8  3812               	swapf	lcd_4bit_send_command@command^0,w,c
  4384  002CCA  0B0F               	andlw	15
  4385  002CCC  6E0E               	movwf	lcd_send_4bits@_data_command^0,c
  4386  002CCE  ECB9  F016         	call	_lcd_send_4bits	;wreg free
  4387  002CD2  6E13               	movwf	lcd_4bit_send_command@ret^0,c
  4388                           
  4389                           ;ECU/Chr_LCD/ecu_chr_lcd.c: 64:         ret = lcd_4bit_send_enable_signal(lcd);
  4390  002CD4  C010  F00C         	movff	lcd_4bit_send_command@lcd,lcd_4bit_send_enable_signal@lcd
  4391  002CD8  C011  F00D         	movff	lcd_4bit_send_command@lcd+1,lcd_4bit_send_enable_signal@lcd+1
  4392  002CDC  ECD2  F017         	call	_lcd_4bit_send_enable_signal	;wreg free
  4393  002CE0  6E13               	movwf	lcd_4bit_send_command@ret^0,c
  4394                           
  4395                           ;ECU/Chr_LCD/ecu_chr_lcd.c: 65:         ret = lcd_send_4bits(lcd, command);
  4396  002CE2  C010  F00C         	movff	lcd_4bit_send_command@lcd,lcd_send_4bits@lcd
  4397  002CE6  C011  F00D         	movff	lcd_4bit_send_command@lcd+1,lcd_send_4bits@lcd+1
  4398  002CEA  C012  F00E         	movff	lcd_4bit_send_command@command,lcd_send_4bits@_data_command
  4399  002CEE  ECB9  F016         	call	_lcd_send_4bits	;wreg free
  4400  002CF2  6E13               	movwf	lcd_4bit_send_command@ret^0,c
  4401                           
  4402                           ;ECU/Chr_LCD/ecu_chr_lcd.c: 66:         ret = lcd_4bit_send_enable_signal(lcd);
  4403  002CF4  C010  F00C         	movff	lcd_4bit_send_command@lcd,lcd_4bit_send_enable_signal@lcd
  4404  002CF8  C011  F00D         	movff	lcd_4bit_send_command@lcd+1,lcd_4bit_send_enable_signal@lcd+1
  4405  002CFC  ECD2  F017         	call	_lcd_4bit_send_enable_signal	;wreg free
  4406  002D00  6E13               	movwf	lcd_4bit_send_command@ret^0,c
  4407  002D02                     l5927:
  4408                           
  4409                           ;ECU/Chr_LCD/ecu_chr_lcd.c: 68:     return ret;
  4410  002D02  5013               	movf	lcd_4bit_send_command@ret^0,w,c
  4411  002D04  0012               	return		;funcret
  4412  002D06                     __end_of_lcd_4bit_send_command:
  4413                           	callstack 0
  4414                           
  4415 ;; *************** function _lcd_send_4bits *****************
  4416 ;; Defined at:
  4417 ;;		line 304 in file "ECU/Chr_LCD/ecu_chr_lcd.c"
  4418 ;; Parameters:    Size  Location     Type
  4419 ;;  lcd             2   11[COMRAM] PTR const struct .
  4420 ;;		 -> lcd_1(6), 
  4421 ;;  _data_comman    1   13[COMRAM] unsigned char 
  4422 ;; Auto vars:     Size  Location     Type
  4423 ;;  ret             1   14[COMRAM] unsigned char 
  4424 ;; Return value:  Size  Location     Type
  4425 ;;                  1    wreg      unsigned char 
  4426 ;; Registers used:
  4427 ;;		wreg, fsr2l, fsr2h, status,2, status,0, prodl, prodh, cstack
  4428 ;; Tracked objects:
  4429 ;;		On entry : 0/0
  4430 ;;		On exit  : 0/0
  4431 ;;		Unchanged: 0/0
  4432 ;; Data sizes:     COMRAM   BANK0   BANK1   BANK2   BANK3   BANK4   BANK5   BANK6   BANK7   BANK8   BANK9  BANK10  BANK1
      +1  BANK12  BANK13  BANK14  BANK15
  4433 ;;      Params:         3       0       0       0       0       0       0       0       0       0       0       0       
      +0       0       0       0       0
  4434 ;;      Locals:         1       0       0       0       0       0       0       0       0       0       0       0       
      +0       0       0       0       0
  4435 ;;      Temps:          0       0       0       0       0       0       0       0       0       0       0       0       
      +0       0       0       0       0
  4436 ;;      Totals:         4       0       0       0       0       0       0       0       0       0       0       0       
      +0       0       0       0       0
  4437 ;;Total ram usage:        4 bytes
  4438 ;; Hardware stack levels used: 1
  4439 ;; Hardware stack levels required when called: 3
  4440 ;; This function calls:
  4441 ;;		_gpio_pin_write_logic
  4442 ;; This function is called by:
  4443 ;;		_lcd_4bit_send_command
  4444 ;;		_lcd_4bit_send_char_data
  4445 ;; This function uses a non-reentrant model
  4446 ;;
  4447                           
  4448                           	psect	text18
  4449  002D72                     __ptext18:
  4450                           	callstack 0
  4451  002D72                     _lcd_send_4bits:
  4452                           	callstack 24
  4453  002D72  0E02               	movlw	2
  4454  002D74  240C               	addwf	lcd_send_4bits@lcd^0,w,c
  4455  002D76  6E02               	movwf	gpio_pin_write_logic@_pin_config^0,c
  4456  002D78  0E00               	movlw	0
  4457  002D7A  200D               	addwfc	(lcd_send_4bits@lcd+1)^0,w,c
  4458  002D7C  6E03               	movwf	(gpio_pin_write_logic@_pin_config+1)^0,c
  4459  002D7E  500E               	movf	lcd_send_4bits@_data_command^0,w,c
  4460  002D80  0B01               	andlw	1
  4461  002D82  6E04               	movwf	gpio_pin_write_logic@logic^0,c
  4462  002D84  EC22  F012         	call	_gpio_pin_write_logic	;wreg free
  4463  002D88  0E03               	movlw	3
  4464  002D8A  240C               	addwf	lcd_send_4bits@lcd^0,w,c
  4465  002D8C  6E02               	movwf	gpio_pin_write_logic@_pin_config^0,c
  4466  002D8E  0E00               	movlw	0
  4467  002D90  200D               	addwfc	(lcd_send_4bits@lcd+1)^0,w,c
  4468  002D92  6E03               	movwf	(gpio_pin_write_logic@_pin_config+1)^0,c
  4469  002D94  90D8               	bcf	status,0,c
  4470  002D96  300E               	rrcf	lcd_send_4bits@_data_command^0,w,c
  4471  002D98  0B01               	andlw	1
  4472  002D9A  6E04               	movwf	gpio_pin_write_logic@logic^0,c
  4473  002D9C  EC22  F012         	call	_gpio_pin_write_logic	;wreg free
  4474  002DA0  0E04               	movlw	4
  4475  002DA2  240C               	addwf	lcd_send_4bits@lcd^0,w,c
  4476  002DA4  6E02               	movwf	gpio_pin_write_logic@_pin_config^0,c
  4477  002DA6  0E00               	movlw	0
  4478  002DA8  200D               	addwfc	(lcd_send_4bits@lcd+1)^0,w,c
  4479  002DAA  6E03               	movwf	(gpio_pin_write_logic@_pin_config+1)^0,c
  4480  002DAC  400E               	rrncf	lcd_send_4bits@_data_command^0,w,c
  4481  002DAE  42E8               	rrncf	wreg,f,c
  4482  002DB0  0B3F               	andlw	63
  4483  002DB2  0B01               	andlw	1
  4484  002DB4  6E04               	movwf	gpio_pin_write_logic@logic^0,c
  4485  002DB6  EC22  F012         	call	_gpio_pin_write_logic	;wreg free
  4486  002DBA                     
  4487                           ;ECU/Chr_LCD/ecu_chr_lcd.c: 309:     ret = gpio_pin_write_logic(&(lcd->lcd_data[3]), (_d
      +                          ata_command >> 3) & (uint8)0X01);
  4488  002DBA  0E05               	movlw	5
  4489  002DBC  240C               	addwf	lcd_send_4bits@lcd^0,w,c
  4490  002DBE  6E02               	movwf	gpio_pin_write_logic@_pin_config^0,c
  4491  002DC0  0E00               	movlw	0
  4492  002DC2  200D               	addwfc	(lcd_send_4bits@lcd+1)^0,w,c
  4493  002DC4  6E03               	movwf	(gpio_pin_write_logic@_pin_config+1)^0,c
  4494  002DC6  380E               	swapf	lcd_send_4bits@_data_command^0,w,c
  4495  002DC8  46E8               	rlncf	wreg,f,c
  4496  002DCA  0B1F               	andlw	31
  4497  002DCC  0B01               	andlw	1
  4498  002DCE  6E04               	movwf	gpio_pin_write_logic@logic^0,c
  4499  002DD0  EC22  F012         	call	_gpio_pin_write_logic	;wreg free
  4500  002DD4  6E0F               	movwf	lcd_send_4bits@ret^0,c
  4501                           
  4502                           ;ECU/Chr_LCD/ecu_chr_lcd.c: 310:     return ret;
  4503  002DD6  500F               	movf	lcd_send_4bits@ret^0,w,c
  4504  002DD8  0012               	return		;funcret
  4505  002DDA                     __end_of_lcd_send_4bits:
  4506                           	callstack 0
  4507                           
  4508 ;; *************** function _lcd_4bit_send_enable_signal *****************
  4509 ;; Defined at:
  4510 ;;		line 313 in file "ECU/Chr_LCD/ecu_chr_lcd.c"
  4511 ;; Parameters:    Size  Location     Type
  4512 ;;  lcd             2   11[COMRAM] PTR const struct .
  4513 ;;		 -> lcd_1(6), 
  4514 ;; Auto vars:     Size  Location     Type
  4515 ;;  ret             1   13[COMRAM] unsigned char 
  4516 ;; Return value:  Size  Location     Type
  4517 ;;                  1    wreg      unsigned char 
  4518 ;; Registers used:
  4519 ;;		wreg, fsr2l, fsr2h, status,2, status,0, prodl, prodh, cstack
  4520 ;; Tracked objects:
  4521 ;;		On entry : 0/0
  4522 ;;		On exit  : 0/0
  4523 ;;		Unchanged: 0/0
  4524 ;; Data sizes:     COMRAM   BANK0   BANK1   BANK2   BANK3   BANK4   BANK5   BANK6   BANK7   BANK8   BANK9  BANK10  BANK1
      +1  BANK12  BANK13  BANK14  BANK15
  4525 ;;      Params:         2       0       0       0       0       0       0       0       0       0       0       0       
      +0       0       0       0       0
  4526 ;;      Locals:         1       0       0       0       0       0       0       0       0       0       0       0       
      +0       0       0       0       0
  4527 ;;      Temps:          0       0       0       0       0       0       0       0       0       0       0       0       
      +0       0       0       0       0
  4528 ;;      Totals:         3       0       0       0       0       0       0       0       0       0       0       0       
      +0       0       0       0       0
  4529 ;;Total ram usage:        3 bytes
  4530 ;; Hardware stack levels used: 1
  4531 ;; Hardware stack levels required when called: 3
  4532 ;; This function calls:
  4533 ;;		_gpio_pin_write_logic
  4534 ;; This function is called by:
  4535 ;;		_lcd_4bit_send_command
  4536 ;;		_lcd_4bit_send_char_data
  4537 ;; This function uses a non-reentrant model
  4538 ;;
  4539                           
  4540                           	psect	text19
  4541  002FA4                     __ptext19:
  4542                           	callstack 0
  4543  002FA4                     _lcd_4bit_send_enable_signal:
  4544                           	callstack 24
  4545  002FA4  0E01               	movlw	1
  4546  002FA6  240C               	addwf	lcd_4bit_send_enable_signal@lcd^0,w,c
  4547  002FA8  6E02               	movwf	gpio_pin_write_logic@_pin_config^0,c
  4548  002FAA  0E00               	movlw	0
  4549  002FAC  200D               	addwfc	(lcd_4bit_send_enable_signal@lcd+1)^0,w,c
  4550  002FAE  6E03               	movwf	(gpio_pin_write_logic@_pin_config+1)^0,c
  4551  002FB0  0E01               	movlw	1
  4552  002FB2  6E04               	movwf	gpio_pin_write_logic@logic^0,c
  4553  002FB4  EC22  F012         	call	_gpio_pin_write_logic	;wreg free
  4554  002FB8                     
  4555                           ;ECU/Chr_LCD/ecu_chr_lcd.c: 316:     _delay((unsigned long)((5)*(8000000UL/4000000.0)));
  4556  002FB8  0E03               	movlw	3
  4557  002FBA                     u7897:
  4558  002FBA  2EE8               	decfsz	wreg,f,c
  4559  002FBC  D7FE               	bra	u7897
  4560  002FBE  F000               	nop	
  4561  002FC0                     
  4562                           ;ECU/Chr_LCD/ecu_chr_lcd.c: 317:     ret = gpio_pin_write_logic(&(lcd->lcd_en), GPIO_LOW
      +                          );
  4563  002FC0  0E01               	movlw	1
  4564  002FC2  240C               	addwf	lcd_4bit_send_enable_signal@lcd^0,w,c
  4565  002FC4  6E02               	movwf	gpio_pin_write_logic@_pin_config^0,c
  4566  002FC6  0E00               	movlw	0
  4567  002FC8  200D               	addwfc	(lcd_4bit_send_enable_signal@lcd+1)^0,w,c
  4568  002FCA  6E03               	movwf	(gpio_pin_write_logic@_pin_config+1)^0,c
  4569  002FCC  0E00               	movlw	0
  4570  002FCE  6E04               	movwf	gpio_pin_write_logic@logic^0,c
  4571  002FD0  EC22  F012         	call	_gpio_pin_write_logic	;wreg free
  4572  002FD4  6E0E               	movwf	lcd_4bit_send_enable_signal@ret^0,c
  4573  002FD6                     
  4574                           ;ECU/Chr_LCD/ecu_chr_lcd.c: 318:     return ret;
  4575  002FD6  500E               	movf	lcd_4bit_send_enable_signal@ret^0,w,c
  4576  002FD8  0012               	return		;funcret
  4577  002FDA                     __end_of_lcd_4bit_send_enable_signal:
  4578                           	callstack 0
  4579                           
  4580 ;; *************** function _dc_motor_initialize *****************
  4581 ;; Defined at:
  4582 ;;		line 20 in file "ECU/DC_Motor/ecu_dc_motor.c"
  4583 ;; Parameters:    Size  Location     Type
  4584 ;;  _dc_motor       2   15[COMRAM] PTR const struct .
  4585 ;;		 -> motor_1(2), 
  4586 ;; Auto vars:     Size  Location     Type
  4587 ;;  ret             1   17[COMRAM] unsigned char 
  4588 ;; Return value:  Size  Location     Type
  4589 ;;                  1    wreg      unsigned char 
  4590 ;; Registers used:
  4591 ;;		wreg, fsr2l, fsr2h, status,2, status,0, prodl, prodh, cstack
  4592 ;; Tracked objects:
  4593 ;;		On entry : 0/0
  4594 ;;		On exit  : 0/0
  4595 ;;		Unchanged: 0/0
  4596 ;; Data sizes:     COMRAM   BANK0   BANK1   BANK2   BANK3   BANK4   BANK5   BANK6   BANK7   BANK8   BANK9  BANK10  BANK1
      +1  BANK12  BANK13  BANK14  BANK15
  4597 ;;      Params:         2       0       0       0       0       0       0       0       0       0       0       0       
      +0       0       0       0       0
  4598 ;;      Locals:         1       0       0       0       0       0       0       0       0       0       0       0       
      +0       0       0       0       0
  4599 ;;      Temps:          0       0       0       0       0       0       0       0       0       0       0       0       
      +0       0       0       0       0
  4600 ;;      Totals:         3       0       0       0       0       0       0       0       0       0       0       0       
      +0       0       0       0       0
  4601 ;;Total ram usage:        3 bytes
  4602 ;; Hardware stack levels used: 1
  4603 ;; Hardware stack levels required when called: 4
  4604 ;; This function calls:
  4605 ;;		_gpio_pin_initialize
  4606 ;; This function is called by:
  4607 ;;		_app_initialize
  4608 ;; This function uses a non-reentrant model
  4609 ;;
  4610                           
  4611                           	psect	text20
  4612  002F66                     __ptext20:
  4613                           	callstack 0
  4614  002F66                     _dc_motor_initialize:
  4615                           	callstack 25
  4616  002F66                     
  4617                           ;ECU/DC_Motor/ecu_dc_motor.c: 21:     Std_ReturnType ret = (Std_ReturnType)0x01;
  4618  002F66  0E01               	movlw	1
  4619  002F68  6E12               	movwf	dc_motor_initialize@ret^0,c
  4620  002F6A                     
  4621                           ;ECU/DC_Motor/ecu_dc_motor.c: 22:     if(((void*)0) == _dc_motor){
  4622  002F6A  5010               	movf	dc_motor_initialize@_dc_motor^0,w,c
  4623  002F6C  1011               	iorwf	(dc_motor_initialize@_dc_motor+1)^0,w,c
  4624  002F6E  A4D8               	btfss	status,2,c
  4625  002F70  EFBC  F017         	goto	u5041
  4626  002F74  EFBE  F017         	goto	u5040
  4627  002F78                     u5041:
  4628  002F78  EFC2  F017         	goto	l6067
  4629  002F7C                     u5040:
  4630  002F7C                     
  4631                           ;ECU/DC_Motor/ecu_dc_motor.c: 23:        ret = (Std_ReturnType)0x00;
  4632  002F7C  0E00               	movlw	0
  4633  002F7E  6E12               	movwf	dc_motor_initialize@ret^0,c
  4634                           
  4635                           ;ECU/DC_Motor/ecu_dc_motor.c: 24:     }
  4636  002F80  EFD0  F017         	goto	l6069
  4637  002F84                     l6067:
  4638                           
  4639                           ;ECU/DC_Motor/ecu_dc_motor.c: 26:          gpio_pin_initialize(&(_dc_motor->dc_motor_pin
      +                          [0x00U]));
  4640  002F84  C010  F00C         	movff	dc_motor_initialize@_dc_motor,gpio_pin_initialize@_pin_config
  4641  002F88  C011  F00D         	movff	dc_motor_initialize@_dc_motor+1,gpio_pin_initialize@_pin_config+1
  4642  002F8C  EC83  F016         	call	_gpio_pin_initialize	;wreg free
  4643                           
  4644                           ;ECU/DC_Motor/ecu_dc_motor.c: 27:          gpio_pin_initialize(&(_dc_motor->dc_motor_pin
      +                          [0x01U]));
  4645  002F90  0E01               	movlw	1
  4646  002F92  2410               	addwf	dc_motor_initialize@_dc_motor^0,w,c
  4647  002F94  6E0C               	movwf	gpio_pin_initialize@_pin_config^0,c
  4648  002F96  0E00               	movlw	0
  4649  002F98  2011               	addwfc	(dc_motor_initialize@_dc_motor+1)^0,w,c
  4650  002F9A  6E0D               	movwf	(gpio_pin_initialize@_pin_config+1)^0,c
  4651  002F9C  EC83  F016         	call	_gpio_pin_initialize	;wreg free
  4652  002FA0                     l6069:
  4653                           
  4654                           ;ECU/DC_Motor/ecu_dc_motor.c: 29:     return ret;
  4655  002FA0  5012               	movf	dc_motor_initialize@ret^0,w,c
  4656  002FA2  0012               	return		;funcret
  4657  002FA4                     __end_of_dc_motor_initialize:
  4658                           	callstack 0
  4659                           
  4660 ;; *************** function _gpio_pin_initialize *****************
  4661 ;; Defined at:
  4662 ;;		line 148 in file "MCAL/GPIO/hal_gpio.c"
  4663 ;; Parameters:    Size  Location     Type
  4664 ;;  _pin_config     2   11[COMRAM] PTR const struct .
  4665 ;;		 -> motor_1.dc_motor_pin(2), motor_1(2), lcd_1.lcd_data(4), lcd_1(6), 
  4666 ;;		 -> relay_initialize@pin_obj(1), led_initialize@pin_obj(1), 
  4667 ;; Auto vars:     Size  Location     Type
  4668 ;;  ret             1   14[COMRAM] unsigned char 
  4669 ;; Return value:  Size  Location     Type
  4670 ;;                  1    wreg      unsigned char 
  4671 ;; Registers used:
  4672 ;;		wreg, fsr2l, fsr2h, status,2, status,0, prodl, prodh, cstack
  4673 ;; Tracked objects:
  4674 ;;		On entry : 0/0
  4675 ;;		On exit  : 0/0
  4676 ;;		Unchanged: 0/0
  4677 ;; Data sizes:     COMRAM   BANK0   BANK1   BANK2   BANK3   BANK4   BANK5   BANK6   BANK7   BANK8   BANK9  BANK10  BANK1
      +1  BANK12  BANK13  BANK14  BANK15
  4678 ;;      Params:         2       0       0       0       0       0       0       0       0       0       0       0       
      +0       0       0       0       0
  4679 ;;      Locals:         1       0       0       0       0       0       0       0       0       0       0       0       
      +0       0       0       0       0
  4680 ;;      Temps:          1       0       0       0       0       0       0       0       0       0       0       0       
      +0       0       0       0       0
  4681 ;;      Totals:         4       0       0       0       0       0       0       0       0       0       0       0       
      +0       0       0       0       0
  4682 ;;Total ram usage:        4 bytes
  4683 ;; Hardware stack levels used: 1
  4684 ;; Hardware stack levels required when called: 3
  4685 ;; This function calls:
  4686 ;;		_gpio_pin_direction_initialize
  4687 ;;		_gpio_pin_write_logic
  4688 ;; This function is called by:
  4689 ;;		_lcd_4bit_initialize
  4690 ;;		_dc_motor_initialize
  4691 ;;		_seven_segment_initialize
  4692 ;;		_button_initialize
  4693 ;;		_lcd_8bit_initialize
  4694 ;;		_keypad_initialize
  4695 ;;		_led_initialize
  4696 ;;		_relay_initialize
  4697 ;;		_CCP_Init
  4698 ;; This function uses a non-reentrant model
  4699 ;;
  4700                           
  4701                           	psect	text21
  4702  002D06                     __ptext21:
  4703                           	callstack 0
  4704  002D06                     _gpio_pin_initialize:
  4705                           	callstack 25
  4706  002D06                     
  4707                           ;MCAL/GPIO/hal_gpio.c: 150:     if(((void*)0) == _pin_config || (_pin_config->pin > (8 -
      +                           1))){
  4708  002D06  500C               	movf	gpio_pin_initialize@_pin_config^0,w,c
  4709  002D08  100D               	iorwf	(gpio_pin_initialize@_pin_config+1)^0,w,c
  4710  002D0A  B4D8               	btfsc	status,2,c
  4711  002D0C  EF8A  F016         	goto	u4941
  4712  002D10  EF8C  F016         	goto	u4940
  4713  002D14                     u4941:
  4714  002D14  EF9D  F016         	goto	l5911
  4715  002D18                     u4940:
  4716  002D18  C00C  FFD9         	movff	gpio_pin_initialize@_pin_config,fsr2l
  4717  002D1C  C00D  FFDA         	movff	gpio_pin_initialize@_pin_config+1,fsr2h
  4718  002D20  30DF               	rrcf	223,w,c
  4719  002D22  32E8               	rrcf	wreg,f,c
  4720  002D24  32E8               	rrcf	wreg,f,c
  4721  002D26  0B07               	andlw	7
  4722  002D28  6E0E               	movwf	??_gpio_pin_initialize^0,c
  4723  002D2A  0E07               	movlw	7
  4724  002D2C  640E               	cpfsgt	??_gpio_pin_initialize^0,c
  4725  002D2E  EF9B  F016         	goto	u4951
  4726  002D32  EF9D  F016         	goto	u4950
  4727  002D36                     u4951:
  4728  002D36  EFA1  F016         	goto	l5913
  4729  002D3A                     u4950:
  4730  002D3A                     l5911:
  4731                           
  4732                           ;MCAL/GPIO/hal_gpio.c: 151:         ret = (Std_ReturnType)0x00;
  4733  002D3A  0E00               	movlw	0
  4734  002D3C  6E0F               	movwf	gpio_pin_initialize@ret^0,c
  4735                           
  4736                           ;MCAL/GPIO/hal_gpio.c: 152:     }
  4737  002D3E  EFB7  F016         	goto	l5915
  4738  002D42                     l5913:
  4739                           
  4740                           ;MCAL/GPIO/hal_gpio.c: 154:          ret = gpio_pin_direction_initialize(_pin_config);
  4741  002D42  C00C  F002         	movff	gpio_pin_initialize@_pin_config,gpio_pin_direction_initialize@_pin_config
  4742  002D46  C00D  F003         	movff	gpio_pin_initialize@_pin_config+1,gpio_pin_direction_initialize@_pin_config+1
  4743  002D4A  EC80  F011         	call	_gpio_pin_direction_initialize	;wreg free
  4744  002D4E  6E0F               	movwf	gpio_pin_initialize@ret^0,c
  4745                           
  4746                           ;MCAL/GPIO/hal_gpio.c: 155:          ret = gpio_pin_write_logic(_pin_config, _pin_config
      +                          ->logic);
  4747  002D50  C00C  F002         	movff	gpio_pin_initialize@_pin_config,gpio_pin_write_logic@_pin_config
  4748  002D54  C00D  F003         	movff	gpio_pin_initialize@_pin_config+1,gpio_pin_write_logic@_pin_config+1
  4749  002D58  C00C  FFD9         	movff	gpio_pin_initialize@_pin_config,fsr2l
  4750  002D5C  C00D  FFDA         	movff	gpio_pin_initialize@_pin_config+1,fsr2h
  4751  002D60  0E00               	movlw	0
  4752  002D62  BEDF               	btfsc	indf2,7,c
  4753  002D64  0E01               	movlw	1
  4754  002D66  6E04               	movwf	gpio_pin_write_logic@logic^0,c
  4755  002D68  EC22  F012         	call	_gpio_pin_write_logic	;wreg free
  4756  002D6C  6E0F               	movwf	gpio_pin_initialize@ret^0,c
  4757  002D6E                     l5915:
  4758                           
  4759                           ;MCAL/GPIO/hal_gpio.c: 157:     return ret;
  4760  002D6E  500F               	movf	gpio_pin_initialize@ret^0,w,c
  4761  002D70  0012               	return		;funcret
  4762  002D72                     __end_of_gpio_pin_initialize:
  4763                           	callstack 0
  4764                           
  4765 ;; *************** function _gpio_pin_write_logic *****************
  4766 ;; Defined at:
  4767 ;;		line 78 in file "MCAL/GPIO/hal_gpio.c"
  4768 ;; Parameters:    Size  Location     Type
  4769 ;;  _pin_config     2    1[COMRAM] PTR const struct .
  4770 ;;		 -> motor_1.dc_motor_pin(2), motor_1(2), lcd_1.lcd_data(4), lcd_1(6), 
  4771 ;;		 -> relay_turn_off@pin_obj(1), relay_turn_on@pin_obj(1), relay_initialize@pin_obj(1), led_turn_off@pin_obj(1), 
  4772 ;;		 -> led_turn_on@pin_obj(1), led_initialize@pin_obj(1), 
  4773 ;;  logic           1    3[COMRAM] enum E2965
  4774 ;; Auto vars:     Size  Location     Type
  4775 ;;  ret             1   10[COMRAM] unsigned char 
  4776 ;; Return value:  Size  Location     Type
  4777 ;;                  1    wreg      unsigned char 
  4778 ;; Registers used:
  4779 ;;		wreg, fsr2l, fsr2h, status,2, status,0, prodl, prodh
  4780 ;; Tracked objects:
  4781 ;;		On entry : 0/0
  4782 ;;		On exit  : 0/0
  4783 ;;		Unchanged: 0/0
  4784 ;; Data sizes:     COMRAM   BANK0   BANK1   BANK2   BANK3   BANK4   BANK5   BANK6   BANK7   BANK8   BANK9  BANK10  BANK1
      +1  BANK12  BANK13  BANK14  BANK15
  4785 ;;      Params:         3       0       0       0       0       0       0       0       0       0       0       0       
      +0       0       0       0       0
  4786 ;;      Locals:         1       0       0       0       0       0       0       0       0       0       0       0       
      +0       0       0       0       0
  4787 ;;      Temps:          6       0       0       0       0       0       0       0       0       0       0       0       
      +0       0       0       0       0
  4788 ;;      Totals:        10       0       0       0       0       0       0       0       0       0       0       0       
      +0       0       0       0       0
  4789 ;;Total ram usage:       10 bytes
  4790 ;; Hardware stack levels used: 1
  4791 ;; Hardware stack levels required when called: 2
  4792 ;; This function calls:
  4793 ;;		Nothing
  4794 ;; This function is called by:
  4795 ;;		_lcd_4bit_send_command
  4796 ;;		_lcd_4bit_send_char_data
  4797 ;;		_lcd_send_4bits
  4798 ;;		_lcd_4bit_send_enable_signal
  4799 ;;		_dc_motor_move_right
  4800 ;;		_dc_motor_stop
  4801 ;;		_gpio_pin_initialize
  4802 ;;		_seven_segment_write_number
  4803 ;;		_lcd_8bit_send_command
  4804 ;;		_lcd_8bit_send_char_data
  4805 ;;		_lcd_8bit_send_enable_signal
  4806 ;;		_dc_motor_move_left
  4807 ;;		_keypad_get_value
  4808 ;;		_led_turn_on
  4809 ;;		_led_turn_off
  4810 ;;		_relay_turn_on
  4811 ;;		_relay_turn_off
  4812 ;; This function uses a non-reentrant model
  4813 ;;
  4814                           
  4815                           	psect	text22
  4816  002444                     __ptext22:
  4817                           	callstack 0
  4818  002444                     _gpio_pin_write_logic:
  4819                           	callstack 24
  4820  002444                     
  4821                           ;MCAL/GPIO/hal_gpio.c: 79:     Std_ReturnType ret = (Std_ReturnType)0x01;
  4822  002444  0E01               	movlw	1
  4823  002446  6E0B               	movwf	gpio_pin_write_logic@ret^0,c
  4824  002448                     
  4825                           ;MCAL/GPIO/hal_gpio.c: 80:     if((((void*)0) == _pin_config) || (_pin_config->pin > (8 
      +                          - 1))){
  4826  002448  5002               	movf	gpio_pin_write_logic@_pin_config^0,w,c
  4827  00244A  1003               	iorwf	(gpio_pin_write_logic@_pin_config+1)^0,w,c
  4828  00244C  B4D8               	btfsc	status,2,c
  4829  00244E  EF2B  F012         	goto	u3951
  4830  002452  EF2D  F012         	goto	u3950
  4831  002456                     u3951:
  4832  002456  EF3E  F012         	goto	l5335
  4833  00245A                     u3950:
  4834  00245A  C002  FFD9         	movff	gpio_pin_write_logic@_pin_config,fsr2l
  4835  00245E  C003  FFDA         	movff	gpio_pin_write_logic@_pin_config+1,fsr2h
  4836  002462  30DF               	rrcf	223,w,c
  4837  002464  32E8               	rrcf	wreg,f,c
  4838  002466  32E8               	rrcf	wreg,f,c
  4839  002468  0B07               	andlw	7
  4840  00246A  6E05               	movwf	??_gpio_pin_write_logic^0,c
  4841  00246C  0E07               	movlw	7
  4842  00246E  6405               	cpfsgt	??_gpio_pin_write_logic^0,c
  4843  002470  EF3C  F012         	goto	u3961
  4844  002474  EF3E  F012         	goto	u3960
  4845  002478                     u3961:
  4846  002478  EFA1  F012         	goto	l5343
  4847  00247C                     u3960:
  4848  00247C                     l5335:
  4849                           
  4850                           ;MCAL/GPIO/hal_gpio.c: 81:         ret = (Std_ReturnType)0x00;
  4851  00247C  0E00               	movlw	0
  4852  00247E  6E0B               	movwf	gpio_pin_write_logic@ret^0,c
  4853                           
  4854                           ;MCAL/GPIO/hal_gpio.c: 82:     }
  4855  002480  EFB6  F012         	goto	l5345
  4856  002484                     l5337:
  4857                           
  4858                           ;MCAL/GPIO/hal_gpio.c: 86:                 (*lat_registers[_pin_config->port] &= ~((uint
      +                          8)1 << _pin_config->pin));
  4859  002484  C002  FFD9         	movff	gpio_pin_write_logic@_pin_config,fsr2l
  4860  002488  C003  FFDA         	movff	gpio_pin_write_logic@_pin_config+1,fsr2h
  4861  00248C  30DF               	rrcf	223,w,c
  4862  00248E  32E8               	rrcf	wreg,f,c
  4863  002490  32E8               	rrcf	wreg,f,c
  4864  002492  0B07               	andlw	7
  4865  002494  6E05               	movwf	??_gpio_pin_write_logic^0,c
  4866  002496  0E01               	movlw	1
  4867  002498  6E06               	movwf	(??_gpio_pin_write_logic+1)^0,c
  4868  00249A  2A05               	incf	??_gpio_pin_write_logic^0,f,c
  4869  00249C  EF52  F012         	goto	u3974
  4870  0024A0                     u3975:
  4871  0024A0  90D8               	bcf	status,0,c
  4872  0024A2  3606               	rlcf	(??_gpio_pin_write_logic+1)^0,f,c
  4873  0024A4                     u3974:
  4874  0024A4  2E05               	decfsz	??_gpio_pin_write_logic^0,f,c
  4875  0024A6  EF50  F012         	goto	u3975
  4876  0024AA  5006               	movf	(??_gpio_pin_write_logic+1)^0,w,c
  4877  0024AC  0AFF               	xorlw	255
  4878  0024AE  6E07               	movwf	(??_gpio_pin_write_logic+2)^0,c
  4879  0024B0  C002  FFD9         	movff	gpio_pin_write_logic@_pin_config,fsr2l
  4880  0024B4  C003  FFDA         	movff	gpio_pin_write_logic@_pin_config+1,fsr2h
  4881  0024B8  50DF               	movf	223,w,c
  4882  0024BA  0B07               	andlw	7
  4883  0024BC  6E08               	movwf	(??_gpio_pin_write_logic+3)^0,c
  4884  0024BE  5008               	movf	(??_gpio_pin_write_logic+3)^0,w,c
  4885  0024C0  0D02               	mullw	2
  4886  0024C2  0EBF               	movlw	low _lat_registers
  4887  0024C4  24F3               	addwf	243,w,c
  4888  0024C6  6ED9               	movwf	fsr2l,c
  4889  0024C8  0E00               	movlw	high _lat_registers
  4890  0024CA  20F4               	addwfc	prodh,w,c
  4891  0024CC  6EDA               	movwf	fsr2h,c
  4892  0024CE  CFDE F009          	movff	postinc2,??_gpio_pin_write_logic+4
  4893  0024D2  CFDD F00A          	movff	postdec2,??_gpio_pin_write_logic+5
  4894  0024D6  C009  FFD9         	movff	??_gpio_pin_write_logic+4,fsr2l
  4895  0024DA  C00A  FFDA         	movff	??_gpio_pin_write_logic+5,fsr2h
  4896  0024DE  5007               	movf	(??_gpio_pin_write_logic+2)^0,w,c
  4897  0024E0  16DF               	andwf	indf2,f,c
  4898                           
  4899                           ;MCAL/GPIO/hal_gpio.c: 87:                 break;
  4900  0024E2  EFB6  F012         	goto	l5345
  4901  0024E6                     l5339:
  4902                           
  4903                           ;MCAL/GPIO/hal_gpio.c: 89:                 (*lat_registers[_pin_config->port] |= ((uint8
      +                          )1 << _pin_config->pin));
  4904  0024E6  C002  FFD9         	movff	gpio_pin_write_logic@_pin_config,fsr2l
  4905  0024EA  C003  FFDA         	movff	gpio_pin_write_logic@_pin_config+1,fsr2h
  4906  0024EE  30DF               	rrcf	223,w,c
  4907  0024F0  32E8               	rrcf	wreg,f,c
  4908  0024F2  32E8               	rrcf	wreg,f,c
  4909  0024F4  0B07               	andlw	7
  4910  0024F6  6E05               	movwf	??_gpio_pin_write_logic^0,c
  4911  0024F8  0E01               	movlw	1
  4912  0024FA  6E06               	movwf	(??_gpio_pin_write_logic+1)^0,c
  4913  0024FC  2A05               	incf	??_gpio_pin_write_logic^0,f,c
  4914  0024FE  EF83  F012         	goto	u3984
  4915  002502                     u3985:
  4916  002502  90D8               	bcf	status,0,c
  4917  002504  3606               	rlcf	(??_gpio_pin_write_logic+1)^0,f,c
  4918  002506                     u3984:
  4919  002506  2E05               	decfsz	??_gpio_pin_write_logic^0,f,c
  4920  002508  EF81  F012         	goto	u3985
  4921  00250C  C002  FFD9         	movff	gpio_pin_write_logic@_pin_config,fsr2l
  4922  002510  C003  FFDA         	movff	gpio_pin_write_logic@_pin_config+1,fsr2h
  4923  002514  50DF               	movf	223,w,c
  4924  002516  0B07               	andlw	7
  4925  002518  6E07               	movwf	(??_gpio_pin_write_logic+2)^0,c
  4926  00251A  5007               	movf	(??_gpio_pin_write_logic+2)^0,w,c
  4927  00251C  0D02               	mullw	2
  4928  00251E  0EBF               	movlw	low _lat_registers
  4929  002520  24F3               	addwf	243,w,c
  4930  002522  6ED9               	movwf	fsr2l,c
  4931  002524  0E00               	movlw	high _lat_registers
  4932  002526  20F4               	addwfc	prodh,w,c
  4933  002528  6EDA               	movwf	fsr2h,c
  4934  00252A  CFDE F008          	movff	postinc2,??_gpio_pin_write_logic+3
  4935  00252E  CFDD F009          	movff	postdec2,??_gpio_pin_write_logic+4
  4936  002532  C008  FFD9         	movff	??_gpio_pin_write_logic+3,fsr2l
  4937  002536  C009  FFDA         	movff	??_gpio_pin_write_logic+4,fsr2h
  4938  00253A  5006               	movf	(??_gpio_pin_write_logic+1)^0,w,c
  4939  00253C  12DF               	iorwf	indf2,f,c
  4940                           
  4941                           ;MCAL/GPIO/hal_gpio.c: 90:                 break;
  4942  00253E  EFB6  F012         	goto	l5345
  4943  002542                     l5343:
  4944  002542  5004               	movf	gpio_pin_write_logic@logic^0,w,c
  4945  002544  6E05               	movwf	??_gpio_pin_write_logic^0,c
  4946  002546  6A06               	clrf	(??_gpio_pin_write_logic+1)^0,c
  4947                           
  4948                           ; Switch on 2 bytes has been partitioned into a top level switch of size 1, and 1 sub-sw
      +                          itches
  4949                           ; Switch size 1, requested type "simple"
  4950                           ; Number of cases is 1, Range of values is 0 to 0
  4951                           ; switch strategies available:
  4952                           ; Name         Instructions Cycles
  4953                           ; simple_byte            4     3 (average)
  4954                           ;	Chosen strategy is simple_byte
  4955  002548  5006               	movf	(??_gpio_pin_write_logic+1)^0,w,c
  4956  00254A  0A00               	xorlw	0	; case 0
  4957  00254C  B4D8               	btfsc	status,2,c
  4958  00254E  EFAB  F012         	goto	l8209
  4959  002552  EF3E  F012         	goto	l5335
  4960  002556                     l8209:
  4961                           
  4962                           ; Switch size 1, requested type "simple"
  4963                           ; Number of cases is 2, Range of values is 0 to 1
  4964                           ; switch strategies available:
  4965                           ; Name         Instructions Cycles
  4966                           ; simple_byte            7     4 (average)
  4967                           ;	Chosen strategy is simple_byte
  4968  002556  5005               	movf	??_gpio_pin_write_logic^0,w,c
  4969  002558  0A00               	xorlw	0	; case 0
  4970  00255A  B4D8               	btfsc	status,2,c
  4971  00255C  EF42  F012         	goto	l5337
  4972  002560  0A01               	xorlw	1	; case 1
  4973  002562  B4D8               	btfsc	status,2,c
  4974  002564  EF73  F012         	goto	l5339
  4975  002568  EF3E  F012         	goto	l5335
  4976  00256C                     l5345:
  4977                           
  4978                           ;MCAL/GPIO/hal_gpio.c: 95:     return ret;
  4979  00256C  500B               	movf	gpio_pin_write_logic@ret^0,w,c
  4980  00256E  0012               	return		;funcret
  4981  002570                     __end_of_gpio_pin_write_logic:
  4982                           	callstack 0
  4983                           
  4984 ;; *************** function _gpio_pin_direction_initialize *****************
  4985 ;; Defined at:
  4986 ;;		line 26 in file "MCAL/GPIO/hal_gpio.c"
  4987 ;; Parameters:    Size  Location     Type
  4988 ;;  _pin_config     2    1[COMRAM] PTR const struct .
  4989 ;;		 -> motor_1.dc_motor_pin(2), motor_1(2), lcd_1.lcd_data(4), lcd_1(6), 
  4990 ;;		 -> relay_initialize@pin_obj(1), led_initialize@pin_obj(1), 
  4991 ;; Auto vars:     Size  Location     Type
  4992 ;;  ret             1    9[COMRAM] unsigned char 
  4993 ;; Return value:  Size  Location     Type
  4994 ;;                  1    wreg      unsigned char 
  4995 ;; Registers used:
  4996 ;;		wreg, fsr2l, fsr2h, status,2, status,0, prodl, prodh
  4997 ;; Tracked objects:
  4998 ;;		On entry : 0/0
  4999 ;;		On exit  : 0/0
  5000 ;;		Unchanged: 0/0
  5001 ;; Data sizes:     COMRAM   BANK0   BANK1   BANK2   BANK3   BANK4   BANK5   BANK6   BANK7   BANK8   BANK9  BANK10  BANK1
      +1  BANK12  BANK13  BANK14  BANK15
  5002 ;;      Params:         2       0       0       0       0       0       0       0       0       0       0       0       
      +0       0       0       0       0
  5003 ;;      Locals:         1       0       0       0       0       0       0       0       0       0       0       0       
      +0       0       0       0       0
  5004 ;;      Temps:          6       0       0       0       0       0       0       0       0       0       0       0       
      +0       0       0       0       0
  5005 ;;      Totals:         9       0       0       0       0       0       0       0       0       0       0       0       
      +0       0       0       0       0
  5006 ;;Total ram usage:        9 bytes
  5007 ;; Hardware stack levels used: 1
  5008 ;; Hardware stack levels required when called: 2
  5009 ;; This function calls:
  5010 ;;		Nothing
  5011 ;; This function is called by:
  5012 ;;		_gpio_pin_initialize
  5013 ;;		_keypad_initialize
  5014 ;;		_Interrupt_RBx_Init
  5015 ;;		_Interrupt_INTx_Pin_Init
  5016 ;; This function uses a non-reentrant model
  5017 ;;
  5018                           
  5019                           	psect	text23
  5020  002300                     __ptext23:
  5021                           	callstack 0
  5022  002300                     _gpio_pin_direction_initialize:
  5023                           	callstack 25
  5024  002300                     
  5025                           ;MCAL/GPIO/hal_gpio.c: 27:     Std_ReturnType ret = (Std_ReturnType)0x01;
  5026  002300  0E01               	movlw	1
  5027  002302  6E0A               	movwf	gpio_pin_direction_initialize@ret^0,c
  5028  002304                     
  5029                           ;MCAL/GPIO/hal_gpio.c: 29:     if(((void*)0) == _pin_config || (_pin_config->pin > (8 - 
      +                          1))){
  5030  002304  5002               	movf	gpio_pin_direction_initialize@_pin_config^0,w,c
  5031  002306  1003               	iorwf	(gpio_pin_direction_initialize@_pin_config+1)^0,w,c
  5032  002308  B4D8               	btfsc	status,2,c
  5033  00230A  EF89  F011         	goto	u4781
  5034  00230E  EF8B  F011         	goto	u4780
  5035  002312                     u4781:
  5036  002312  EF9C  F011         	goto	l5813
  5037  002316                     u4780:
  5038  002316  C002  FFD9         	movff	gpio_pin_direction_initialize@_pin_config,fsr2l
  5039  00231A  C003  FFDA         	movff	gpio_pin_direction_initialize@_pin_config+1,fsr2h
  5040  00231E  30DF               	rrcf	223,w,c
  5041  002320  32E8               	rrcf	wreg,f,c
  5042  002322  32E8               	rrcf	wreg,f,c
  5043  002324  0B07               	andlw	7
  5044  002326  6E04               	movwf	??_gpio_pin_direction_initialize^0,c
  5045  002328  0E07               	movlw	7
  5046  00232A  6404               	cpfsgt	??_gpio_pin_direction_initialize^0,c
  5047  00232C  EF9A  F011         	goto	u4791
  5048  002330  EF9C  F011         	goto	u4790
  5049  002334                     u4791:
  5050  002334  EFFF  F011         	goto	l5821
  5051  002338                     u4790:
  5052  002338                     l5813:
  5053                           
  5054                           ;MCAL/GPIO/hal_gpio.c: 30:         ret = (Std_ReturnType)0x00;
  5055  002338  0E00               	movlw	0
  5056  00233A  6E0A               	movwf	gpio_pin_direction_initialize@ret^0,c
  5057                           
  5058                           ;MCAL/GPIO/hal_gpio.c: 31:     }
  5059  00233C  EF20  F012         	goto	l5823
  5060  002340                     l5815:
  5061                           
  5062                           ;MCAL/GPIO/hal_gpio.c: 35:             (*tris_registers[_pin_config->port] &= ~((uint8)1
      +                           << _pin_config->pin));
  5063  002340  C002  FFD9         	movff	gpio_pin_direction_initialize@_pin_config,fsr2l
  5064  002344  C003  FFDA         	movff	gpio_pin_direction_initialize@_pin_config+1,fsr2h
  5065  002348  30DF               	rrcf	223,w,c
  5066  00234A  32E8               	rrcf	wreg,f,c
  5067  00234C  32E8               	rrcf	wreg,f,c
  5068  00234E  0B07               	andlw	7
  5069  002350  6E04               	movwf	??_gpio_pin_direction_initialize^0,c
  5070  002352  0E01               	movlw	1
  5071  002354  6E05               	movwf	(??_gpio_pin_direction_initialize+1)^0,c
  5072  002356  2A04               	incf	??_gpio_pin_direction_initialize^0,f,c
  5073  002358  EFB0  F011         	goto	u4804
  5074  00235C                     u4805:
  5075  00235C  90D8               	bcf	status,0,c
  5076  00235E  3605               	rlcf	(??_gpio_pin_direction_initialize+1)^0,f,c
  5077  002360                     u4804:
  5078  002360  2E04               	decfsz	??_gpio_pin_direction_initialize^0,f,c
  5079  002362  EFAE  F011         	goto	u4805
  5080  002366  5005               	movf	(??_gpio_pin_direction_initialize+1)^0,w,c
  5081  002368  0AFF               	xorlw	255
  5082  00236A  6E06               	movwf	(??_gpio_pin_direction_initialize+2)^0,c
  5083  00236C  C002  FFD9         	movff	gpio_pin_direction_initialize@_pin_config,fsr2l
  5084  002370  C003  FFDA         	movff	gpio_pin_direction_initialize@_pin_config+1,fsr2h
  5085  002374  50DF               	movf	223,w,c
  5086  002376  0B07               	andlw	7
  5087  002378  6E07               	movwf	(??_gpio_pin_direction_initialize+3)^0,c
  5088  00237A  5007               	movf	(??_gpio_pin_direction_initialize+3)^0,w,c
  5089  00237C  0D02               	mullw	2
  5090  00237E  0EC9               	movlw	low _tris_registers
  5091  002380  24F3               	addwf	243,w,c
  5092  002382  6ED9               	movwf	fsr2l,c
  5093  002384  0E00               	movlw	high _tris_registers
  5094  002386  20F4               	addwfc	prodh,w,c
  5095  002388  6EDA               	movwf	fsr2h,c
  5096  00238A  CFDE F008          	movff	postinc2,??_gpio_pin_direction_initialize+4
  5097  00238E  CFDD F009          	movff	postdec2,??_gpio_pin_direction_initialize+5
  5098  002392  C008  FFD9         	movff	??_gpio_pin_direction_initialize+4,fsr2l
  5099  002396  C009  FFDA         	movff	??_gpio_pin_direction_initialize+5,fsr2h
  5100  00239A  5006               	movf	(??_gpio_pin_direction_initialize+2)^0,w,c
  5101  00239C  16DF               	andwf	indf2,f,c
  5102                           
  5103                           ;MCAL/GPIO/hal_gpio.c: 36:             break;
  5104  00239E  EF20  F012         	goto	l5823
  5105  0023A2                     l5817:
  5106                           
  5107                           ;MCAL/GPIO/hal_gpio.c: 38:             (*tris_registers[_pin_config->port] |= ((uint8)1 
      +                          << _pin_config->pin));
  5108  0023A2  C002  FFD9         	movff	gpio_pin_direction_initialize@_pin_config,fsr2l
  5109  0023A6  C003  FFDA         	movff	gpio_pin_direction_initialize@_pin_config+1,fsr2h
  5110  0023AA  30DF               	rrcf	223,w,c
  5111  0023AC  32E8               	rrcf	wreg,f,c
  5112  0023AE  32E8               	rrcf	wreg,f,c
  5113  0023B0  0B07               	andlw	7
  5114  0023B2  6E04               	movwf	??_gpio_pin_direction_initialize^0,c
  5115  0023B4  0E01               	movlw	1
  5116  0023B6  6E05               	movwf	(??_gpio_pin_direction_initialize+1)^0,c
  5117  0023B8  2A04               	incf	??_gpio_pin_direction_initialize^0,f,c
  5118  0023BA  EFE1  F011         	goto	u4814
  5119  0023BE                     u4815:
  5120  0023BE  90D8               	bcf	status,0,c
  5121  0023C0  3605               	rlcf	(??_gpio_pin_direction_initialize+1)^0,f,c
  5122  0023C2                     u4814:
  5123  0023C2  2E04               	decfsz	??_gpio_pin_direction_initialize^0,f,c
  5124  0023C4  EFDF  F011         	goto	u4815
  5125  0023C8  C002  FFD9         	movff	gpio_pin_direction_initialize@_pin_config,fsr2l
  5126  0023CC  C003  FFDA         	movff	gpio_pin_direction_initialize@_pin_config+1,fsr2h
  5127  0023D0  50DF               	movf	223,w,c
  5128  0023D2  0B07               	andlw	7
  5129  0023D4  6E06               	movwf	(??_gpio_pin_direction_initialize+2)^0,c
  5130  0023D6  5006               	movf	(??_gpio_pin_direction_initialize+2)^0,w,c
  5131  0023D8  0D02               	mullw	2
  5132  0023DA  0EC9               	movlw	low _tris_registers
  5133  0023DC  24F3               	addwf	243,w,c
  5134  0023DE  6ED9               	movwf	fsr2l,c
  5135  0023E0  0E00               	movlw	high _tris_registers
  5136  0023E2  20F4               	addwfc	prodh,w,c
  5137  0023E4  6EDA               	movwf	fsr2h,c
  5138  0023E6  CFDE F007          	movff	postinc2,??_gpio_pin_direction_initialize+3
  5139  0023EA  CFDD F008          	movff	postdec2,??_gpio_pin_direction_initialize+4
  5140  0023EE  C007  FFD9         	movff	??_gpio_pin_direction_initialize+3,fsr2l
  5141  0023F2  C008  FFDA         	movff	??_gpio_pin_direction_initialize+4,fsr2h
  5142  0023F6  5005               	movf	(??_gpio_pin_direction_initialize+1)^0,w,c
  5143  0023F8  12DF               	iorwf	indf2,f,c
  5144                           
  5145                           ;MCAL/GPIO/hal_gpio.c: 39:             break;
  5146  0023FA  EF20  F012         	goto	l5823
  5147  0023FE                     l5821:
  5148  0023FE  C002  FFD9         	movff	gpio_pin_direction_initialize@_pin_config,fsr2l
  5149  002402  C003  FFDA         	movff	gpio_pin_direction_initialize@_pin_config+1,fsr2h
  5150  002406  BCDF               	btfsc	indf2,6,c
  5151  002408  EF08  F012         	goto	u4821
  5152  00240C  EF0B  F012         	goto	u4820
  5153  002410                     u4821:
  5154  002410  0E01               	movlw	1
  5155  002412  EF0C  F012         	goto	u4830
  5156  002416                     u4820:
  5157  002416  0E00               	movlw	0
  5158  002418                     u4830:
  5159  002418  6E04               	movwf	??_gpio_pin_direction_initialize^0,c
  5160  00241A  6A05               	clrf	(??_gpio_pin_direction_initialize+1)^0,c
  5161                           
  5162                           ; Switch on 2 bytes has been partitioned into a top level switch of size 1, and 1 sub-sw
      +                          itches
  5163                           ; Switch size 1, requested type "simple"
  5164                           ; Number of cases is 1, Range of values is 0 to 0
  5165                           ; switch strategies available:
  5166                           ; Name         Instructions Cycles
  5167                           ; simple_byte            4     3 (average)
  5168                           ;	Chosen strategy is simple_byte
  5169  00241C  5005               	movf	(??_gpio_pin_direction_initialize+1)^0,w,c
  5170  00241E  0A00               	xorlw	0	; case 0
  5171  002420  B4D8               	btfsc	status,2,c
  5172  002422  EF15  F012         	goto	l8211
  5173  002426  EF9C  F011         	goto	l5813
  5174  00242A                     l8211:
  5175                           
  5176                           ; Switch size 1, requested type "simple"
  5177                           ; Number of cases is 2, Range of values is 0 to 1
  5178                           ; switch strategies available:
  5179                           ; Name         Instructions Cycles
  5180                           ; simple_byte            7     4 (average)
  5181                           ;	Chosen strategy is simple_byte
  5182  00242A  5004               	movf	??_gpio_pin_direction_initialize^0,w,c
  5183  00242C  0A00               	xorlw	0	; case 0
  5184  00242E  B4D8               	btfsc	status,2,c
  5185  002430  EFA0  F011         	goto	l5815
  5186  002434  0A01               	xorlw	1	; case 1
  5187  002436  B4D8               	btfsc	status,2,c
  5188  002438  EFD1  F011         	goto	l5817
  5189  00243C  EF9C  F011         	goto	l5813
  5190  002440                     l5823:
  5191                           
  5192                           ;MCAL/GPIO/hal_gpio.c: 43:     return ret;
  5193  002440  500A               	movf	gpio_pin_direction_initialize@ret^0,w,c
  5194  002442  0012               	return		;funcret
  5195  002444                     __end_of_gpio_pin_direction_initialize:
  5196                           	callstack 0
  5197                           
  5198 ;; *************** function _StringToUint8 *****************
  5199 ;; Defined at:
  5200 ;;		line 118 in file "app.c"
  5201 ;; Parameters:    Size  Location     Type
  5202 ;;  str             2    1[COMRAM] PTR const unsigned char 
  5203 ;;		 -> lm35_res_2_txt(7), 
  5204 ;; Auto vars:     Size  Location     Type
  5205 ;;  result          1    5[COMRAM] unsigned char 
  5206 ;;  sign            1    4[COMRAM] unsigned char 
  5207 ;; Return value:  Size  Location     Type
  5208 ;;                  1    wreg      unsigned char 
  5209 ;; Registers used:
  5210 ;;		wreg, fsr2l, fsr2h, status,2, status,0, prodl, prodh
  5211 ;; Tracked objects:
  5212 ;;		On entry : 0/0
  5213 ;;		On exit  : 0/0
  5214 ;;		Unchanged: 0/0
  5215 ;; Data sizes:     COMRAM   BANK0   BANK1   BANK2   BANK3   BANK4   BANK5   BANK6   BANK7   BANK8   BANK9  BANK10  BANK1
      +1  BANK12  BANK13  BANK14  BANK15
  5216 ;;      Params:         2       0       0       0       0       0       0       0       0       0       0       0       
      +0       0       0       0       0
  5217 ;;      Locals:         2       0       0       0       0       0       0       0       0       0       0       0       
      +0       0       0       0       0
  5218 ;;      Temps:          1       0       0       0       0       0       0       0       0       0       0       0       
      +0       0       0       0       0
  5219 ;;      Totals:         5       0       0       0       0       0       0       0       0       0       0       0       
      +0       0       0       0       0
  5220 ;;Total ram usage:        5 bytes
  5221 ;; Hardware stack levels used: 1
  5222 ;; Hardware stack levels required when called: 2
  5223 ;; This function calls:
  5224 ;;		Nothing
  5225 ;; This function is called by:
  5226 ;;		_main
  5227 ;; This function uses a non-reentrant model
  5228 ;;
  5229                           
  5230                           	psect	text24
  5231  002BA6                     __ptext24:
  5232                           	callstack 0
  5233  002BA6                     _StringToUint8:
  5234                           	callstack 28
  5235  002BA6                     
  5236                           ;app.c: 119:     uint8 result = 0;
  5237  002BA6  0E00               	movlw	0
  5238  002BA8  6E06               	movwf	StringToUint8@result^0,c
  5239                           
  5240                           ;app.c: 120:     uint8 sign = 1;
  5241  002BAA  0E01               	movlw	1
  5242  002BAC  6E05               	movwf	StringToUint8@sign^0,c
  5243  002BAE                     
  5244                           ;app.c: 123:     if(*str == '-'){
  5245  002BAE  C002  FFD9         	movff	StringToUint8@str,fsr2l
  5246  002BB2  C003  FFDA         	movff	StringToUint8@str+1,fsr2h
  5247  002BB6  0E2D               	movlw	45
  5248  002BB8  18DE               	xorwf	postinc2,w,c
  5249  002BBA  A4D8               	btfss	status,2,c
  5250  002BBC  EFE2  F015         	goto	u5291
  5251  002BC0  EFE4  F015         	goto	u5290
  5252  002BC4                     u5291:
  5253  002BC4  EFE7  F015         	goto	l6401
  5254  002BC8                     u5290:
  5255  002BC8                     
  5256                           ;app.c: 124:         sign = -1;
  5257  002BC8  6805               	setf	StringToUint8@sign^0,c
  5258  002BCA                     l6399:
  5259                           
  5260                           ;app.c: 125:         str++;
  5261  002BCA  4A02               	infsnz	StringToUint8@str^0,f,c
  5262  002BCC  2A03               	incf	(StringToUint8@str+1)^0,f,c
  5263  002BCE                     l6401:
  5264                           
  5265                           ;app.c: 130:         if(*str >= '0' && *str <= '9'){
  5266  002BCE  C002  FFD9         	movff	StringToUint8@str,fsr2l
  5267  002BD2  C003  FFDA         	movff	StringToUint8@str+1,fsr2h
  5268  002BD6  0E2F               	movlw	47
  5269  002BD8  64DF               	cpfsgt	indf2,c
  5270  002BDA  EFF1  F015         	goto	u5301
  5271  002BDE  EFF3  F015         	goto	u5300
  5272  002BE2                     u5301:
  5273  002BE2  EF0D  F016         	goto	l6409
  5274  002BE6                     u5300:
  5275  002BE6  C002  FFD9         	movff	StringToUint8@str,fsr2l
  5276  002BEA  C003  FFDA         	movff	StringToUint8@str+1,fsr2h
  5277  002BEE  0E3A               	movlw	58
  5278  002BF0  60DF               	cpfslt	indf2,c
  5279  002BF2  EFFD  F015         	goto	u5311
  5280  002BF6  EFFF  F015         	goto	u5310
  5281  002BFA                     u5311:
  5282  002BFA  EF0D  F016         	goto	l6409
  5283  002BFE                     u5310:
  5284  002BFE                     
  5285                           ;app.c: 131:             result = result * 10 + (*str - '0');
  5286  002BFE  C002  FFD9         	movff	StringToUint8@str,fsr2l
  5287  002C02  C003  FFDA         	movff	StringToUint8@str+1,fsr2h
  5288  002C06  50DF               	movf	indf2,w,c
  5289  002C08  6E04               	movwf	??_StringToUint8^0,c
  5290  002C0A  5006               	movf	StringToUint8@result^0,w,c
  5291  002C0C  0D0A               	mullw	10
  5292  002C0E  50F3               	movf	243,w,c
  5293  002C10  2404               	addwf	??_StringToUint8^0,w,c
  5294  002C12  0FD0               	addlw	208
  5295  002C14  6E06               	movwf	StringToUint8@result^0,c
  5296                           
  5297                           ;app.c: 132:         }
  5298  002C16  EFE5  F015         	goto	l6399
  5299  002C1A                     l6409:
  5300                           
  5301                           ;app.c: 140:     return sign * result;
  5302  002C1A  5005               	movf	StringToUint8@sign^0,w,c
  5303  002C1C  0206               	mulwf	StringToUint8@result^0,c
  5304  002C1E  50F3               	movf	243,w,c
  5305  002C20  0012               	return		;funcret
  5306  002C22                     __end_of_StringToUint8:
  5307                           	callstack 0
  5308                           
  5309 ;; *************** function _EUSART_ASYNC_ReadStringBlocking *****************
  5310 ;; Defined at:
  5311 ;;		line 69 in file "MCAL/usart/hal_usart.c"
  5312 ;; Parameters:    Size  Location     Type
  5313 ;;  _data           2    1[COMRAM] PTR unsigned char 
  5314 ;;		 -> lm35_res_2_txt(7), 
  5315 ;;  str_len         2    3[COMRAM] unsigned short 
  5316 ;; Auto vars:     Size  Location     Type
  5317 ;;  char_counter    2    9[COMRAM] unsigned short 
  5318 ;;  ret             1    8[COMRAM] unsigned char 
  5319 ;; Return value:  Size  Location     Type
  5320 ;;                  1    wreg      unsigned char 
  5321 ;; Registers used:
  5322 ;;		wreg, fsr2l, fsr2h, status,2, status,0
  5323 ;; Tracked objects:
  5324 ;;		On entry : 0/0
  5325 ;;		On exit  : 0/0
  5326 ;;		Unchanged: 0/0
  5327 ;; Data sizes:     COMRAM   BANK0   BANK1   BANK2   BANK3   BANK4   BANK5   BANK6   BANK7   BANK8   BANK9  BANK10  BANK1
      +1  BANK12  BANK13  BANK14  BANK15
  5328 ;;      Params:         4       0       0       0       0       0       0       0       0       0       0       0       
      +0       0       0       0       0
  5329 ;;      Locals:         3       0       0       0       0       0       0       0       0       0       0       0       
      +0       0       0       0       0
  5330 ;;      Temps:          3       0       0       0       0       0       0       0       0       0       0       0       
      +0       0       0       0       0
  5331 ;;      Totals:        10       0       0       0       0       0       0       0       0       0       0       0       
      +0       0       0       0       0
  5332 ;;Total ram usage:       10 bytes
  5333 ;; Hardware stack levels used: 1
  5334 ;; Hardware stack levels required when called: 2
  5335 ;; This function calls:
  5336 ;;		Nothing
  5337 ;; This function is called by:
  5338 ;;		_main
  5339 ;; This function uses a non-reentrant model
  5340 ;;
  5341                           
  5342                           	psect	text25
  5343  002A62                     __ptext25:
  5344                           	callstack 0
  5345  002A62                     _EUSART_ASYNC_ReadStringBlocking:
  5346                           	callstack 28
  5347  002A62                     
  5348                           ;MCAL/usart/hal_usart.c: 70:     Std_ReturnType ret = (Std_ReturnType)0x00;
  5349  002A62  0E00               	movlw	0
  5350  002A64  6E09               	movwf	EUSART_ASYNC_ReadStringBlocking@ret^0,c
  5351                           
  5352                           ;MCAL/usart/hal_usart.c: 71:     uint16 char_counter = 0;
  5353  002A66  0E00               	movlw	0
  5354  002A68  6E0B               	movwf	(EUSART_ASYNC_ReadStringBlocking@char_counter+1)^0,c
  5355  002A6A  0E00               	movlw	0
  5356  002A6C  6E0A               	movwf	EUSART_ASYNC_ReadStringBlocking@char_counter^0,c
  5357                           
  5358                           ;MCAL/usart/hal_usart.c: 74:     while (char_counter < str_len) {
  5359  002A6E  EF61  F015         	goto	l6375
  5360  002A72                     l1470:
  5361  002A72  AA9E               	btfss	158,5,c	;volatile
  5362  002A74  EF3E  F015         	goto	u5251
  5363  002A78  EF40  F015         	goto	u5250
  5364  002A7C                     u5251:
  5365  002A7C  EF39  F015         	goto	l1470
  5366  002A80                     u5250:
  5367  002A80                     
  5368                           ;MCAL/usart/hal_usart.c: 79:         _data[char_counter] = RCREG;
  5369  002A80  500A               	movf	EUSART_ASYNC_ReadStringBlocking@char_counter^0,w,c
  5370  002A82  2402               	addwf	EUSART_ASYNC_ReadStringBlocking@_data^0,w,c
  5371  002A84  6ED9               	movwf	fsr2l,c
  5372  002A86  500B               	movf	(EUSART_ASYNC_ReadStringBlocking@char_counter+1)^0,w,c
  5373  002A88  2003               	addwfc	(EUSART_ASYNC_ReadStringBlocking@_data+1)^0,w,c
  5374  002A8A  6EDA               	movwf	fsr2h,c
  5375  002A8C  CFAE FFDF          	movff	4014,indf2	;volatile
  5376  002A90                     
  5377                           ;MCAL/usart/hal_usart.c: 80:         char_counter++;
  5378  002A90  4A0A               	infsnz	EUSART_ASYNC_ReadStringBlocking@char_counter^0,f,c
  5379  002A92  2A0B               	incf	(EUSART_ASYNC_ReadStringBlocking@char_counter+1)^0,f,c
  5380  002A94                     
  5381                           ;MCAL/usart/hal_usart.c: 83:         if (_data[char_counter - 1] == '\n') {
  5382  002A94  500A               	movf	EUSART_ASYNC_ReadStringBlocking@char_counter^0,w,c
  5383  002A96  2402               	addwf	EUSART_ASYNC_ReadStringBlocking@_data^0,w,c
  5384  002A98  6E06               	movwf	??_EUSART_ASYNC_ReadStringBlocking^0,c
  5385  002A9A  500B               	movf	(EUSART_ASYNC_ReadStringBlocking@char_counter+1)^0,w,c
  5386  002A9C  2003               	addwfc	(EUSART_ASYNC_ReadStringBlocking@_data+1)^0,w,c
  5387  002A9E  6E07               	movwf	(??_EUSART_ASYNC_ReadStringBlocking+1)^0,c
  5388  002AA0  0EFF               	movlw	255
  5389  002AA2  2406               	addwf	??_EUSART_ASYNC_ReadStringBlocking^0,w,c
  5390  002AA4  6ED9               	movwf	fsr2l,c
  5391  002AA6  0EFF               	movlw	255
  5392  002AA8  2007               	addwfc	(??_EUSART_ASYNC_ReadStringBlocking+1)^0,w,c
  5393  002AAA  6EDA               	movwf	fsr2h,c
  5394  002AAC  0E0A               	movlw	10
  5395  002AAE  18DE               	xorwf	postinc2,w,c
  5396  002AB0  A4D8               	btfss	status,2,c
  5397  002AB2  EF5D  F015         	goto	u5261
  5398  002AB6  EF5F  F015         	goto	u5260
  5399  002ABA                     u5261:
  5400  002ABA  EF61  F015         	goto	l6375
  5401  002ABE                     u5260:
  5402  002ABE  EF6C  F015         	goto	l6377
  5403  002AC2                     l6375:
  5404                           
  5405                           ;MCAL/usart/hal_usart.c: 74:     while (char_counter < str_len) {
  5406  002AC2  5004               	movf	EUSART_ASYNC_ReadStringBlocking@str_len^0,w,c
  5407  002AC4  5C0A               	subwf	EUSART_ASYNC_ReadStringBlocking@char_counter^0,w,c
  5408  002AC6  5005               	movf	(EUSART_ASYNC_ReadStringBlocking@str_len+1)^0,w,c
  5409  002AC8  580B               	subwfb	(EUSART_ASYNC_ReadStringBlocking@char_counter+1)^0,w,c
  5410  002ACA  A0D8               	btfss	status,0,c
  5411  002ACC  EF6A  F015         	goto	u5271
  5412  002AD0  EF6C  F015         	goto	u5270
  5413  002AD4                     u5271:
  5414  002AD4  EF39  F015         	goto	l1470
  5415  002AD8                     u5270:
  5416  002AD8                     l6377:
  5417                           
  5418                           ;MCAL/usart/hal_usart.c: 89:     _data[char_counter] = '\0';
  5419  002AD8  500A               	movf	EUSART_ASYNC_ReadStringBlocking@char_counter^0,w,c
  5420  002ADA  2402               	addwf	EUSART_ASYNC_ReadStringBlocking@_data^0,w,c
  5421  002ADC  6ED9               	movwf	fsr2l,c
  5422  002ADE  500B               	movf	(EUSART_ASYNC_ReadStringBlocking@char_counter+1)^0,w,c
  5423  002AE0  2003               	addwfc	(EUSART_ASYNC_ReadStringBlocking@_data+1)^0,w,c
  5424  002AE2  6EDA               	movwf	fsr2h,c
  5425  002AE4  0E00               	movlw	0
  5426  002AE6  6EDF               	movwf	indf2,c
  5427  002AE8                     
  5428                           ;MCAL/usart/hal_usart.c: 92:     if (char_counter >= str_len) {
  5429  002AE8  5004               	movf	EUSART_ASYNC_ReadStringBlocking@str_len^0,w,c
  5430  002AEA  5C0A               	subwf	EUSART_ASYNC_ReadStringBlocking@char_counter^0,w,c
  5431  002AEC  5005               	movf	(EUSART_ASYNC_ReadStringBlocking@str_len+1)^0,w,c
  5432  002AEE  580B               	subwfb	(EUSART_ASYNC_ReadStringBlocking@char_counter+1)^0,w,c
  5433  002AF0  A0D8               	btfss	status,0,c
  5434  002AF2  EF7D  F015         	goto	u5281
  5435  002AF6  EF7F  F015         	goto	u5280
  5436  002AFA                     u5281:
  5437  002AFA  EF81  F015         	goto	l1475
  5438  002AFE                     u5280:
  5439  002AFE                     
  5440                           ;MCAL/usart/hal_usart.c: 93:         ret = (Std_ReturnType)0x01;
  5441  002AFE  0E01               	movlw	1
  5442  002B00  6E09               	movwf	EUSART_ASYNC_ReadStringBlocking@ret^0,c
  5443  002B02                     l1475:
  5444                           
  5445                           ;MCAL/usart/hal_usart.c: 96:     return ret;
  5446  002B02  5009               	movf	EUSART_ASYNC_ReadStringBlocking@ret^0,w,c
  5447  002B04  0012               	return		;funcret
  5448  002B06                     __end_of_EUSART_ASYNC_ReadStringBlocking:
  5449                           	callstack 0
  5450                           
  5451 ;; *************** function _InterruptManagerHigh *****************
  5452 ;; Defined at:
  5453 ;;		line 32 in file "MCAL/Interrupt/mcal_interrupt_manager.c"
  5454 ;; Parameters:    Size  Location     Type
  5455 ;;		None
  5456 ;; Auto vars:     Size  Location     Type
  5457 ;;		None
  5458 ;; Return value:  Size  Location     Type
  5459 ;;                  1    wreg      void 
  5460 ;; Registers used:
  5461 ;;		wreg, status,2, status,0, cstack
  5462 ;; Tracked objects:
  5463 ;;		On entry : 0/0
  5464 ;;		On exit  : 0/0
  5465 ;;		Unchanged: 0/0
  5466 ;; Data sizes:     COMRAM   BANK0   BANK1   BANK2   BANK3   BANK4   BANK5   BANK6   BANK7   BANK8   BANK9  BANK10  BANK1
      +1  BANK12  BANK13  BANK14  BANK15
  5467 ;;      Params:         0       0       0       0       0       0       0       0       0       0       0       0       
      +0       0       0       0       0
  5468 ;;      Locals:         0       0       0       0       0       0       0       0       0       0       0       0       
      +0       0       0       0       0
  5469 ;;      Temps:          0       0       0       0       0       0       0       0       0       0       0       0       
      +0       0       0       0       0
  5470 ;;      Totals:         0       0       0       0       0       0       0       0       0       0       0       0       
      +0       0       0       0       0
  5471 ;;Total ram usage:        0 bytes
  5472 ;; Hardware stack levels used: 1
  5473 ;; Hardware stack levels required when called: 1
  5474 ;; This function calls:
  5475 ;;		_ADC_ISR
  5476 ;;		_CCP1_ISR
  5477 ;;		_CCP2_ISR
  5478 ;;		_EUSART_RX_ISR
  5479 ;;		_EUSART_TX_ISR
  5480 ;;		_INT0_ISR
  5481 ;;		_INT1_ISR
  5482 ;;		_INT2_ISR
  5483 ;;		_MSSP_I2C_BC_ISR
  5484 ;;		_MSSP_I2C_ISR
  5485 ;;		_RB4_ISR
  5486 ;;		_RB5_ISR
  5487 ;;		_RB6_ISR
  5488 ;;		_RB7_ISR
  5489 ;;		_TMR0_ISR
  5490 ;;		_TMR1_ISR
  5491 ;;		_TMR2_ISR
  5492 ;;		_TMR3_ISR
  5493 ;; This function is called by:
  5494 ;;		Interrupt level 2
  5495 ;; This function uses a non-reentrant model
  5496 ;;
  5497                           
  5498                           	psect	intcode
  5499  000008                     __pintcode:
  5500                           	callstack 0
  5501  000008                     _InterruptManagerHigh:
  5502                           	callstack 24
  5503                           
  5504                           ;incstack = 0
  5505  000008  826D               	bsf	int$flags,1,c	;set compiler interrupt flag (level 2)
  5506  00000A  EDE6  F00C         	call	int_func,f	;refresh shadow registers
  5507                           
  5508                           	psect	intcode_body
  5509  0019CC                     __pintcode_body:
  5510                           	callstack 24
  5511  0019CC                     int_func:
  5512                           	callstack 24
  5513  0019CC  0006               	pop		; remove dummy address from shadow register refresh
  5514  0019CE                     
  5515                           ;MCAL/Interrupt/mcal_interrupt_manager.c: 33:     if((1 == INTCONbits.INT0IE) && (1 == I
      +                          NTCONbits.INT0IF)){
  5516  0019CE  A8F2               	btfss	242,4,c	;volatile
  5517  0019D0  EFEC  F00C         	goto	i2u607_41
  5518  0019D4  EFEE  F00C         	goto	i2u607_40
  5519  0019D8                     i2u607_41:
  5520  0019D8  EFF7  F00C         	goto	i2l1138
  5521  0019DC                     i2u607_40:
  5522  0019DC  A2F2               	btfss	242,1,c	;volatile
  5523  0019DE  EFF3  F00C         	goto	i2u608_41
  5524  0019E2  EFF5  F00C         	goto	i2u608_40
  5525  0019E6                     i2u608_41:
  5526  0019E6  EFF7  F00C         	goto	i2l1138
  5527  0019EA                     i2u608_40:
  5528  0019EA                     
  5529                           ;MCAL/Interrupt/mcal_interrupt_manager.c: 34:         INT0_ISR();
  5530  0019EA  EC63  F018         	call	_INT0_ISR	;wreg free
  5531  0019EE                     i2l1138:
  5532                           
  5533                           ;MCAL/Interrupt/mcal_interrupt_manager.c: 37:     if((1 == INTCON3bits.INT1E) && (1 == I
      +                          NTCON3bits.INT1F)){
  5534  0019EE  A6F0               	btfss	240,3,c	;volatile
  5535  0019F0  EFFC  F00C         	goto	i2u609_41
  5536  0019F4  EFFE  F00C         	goto	i2u609_40
  5537  0019F8                     i2u609_41:
  5538  0019F8  EF07  F00D         	goto	i2l1140
  5539  0019FC                     i2u609_40:
  5540  0019FC  A0F0               	btfss	240,0,c	;volatile
  5541  0019FE  EF03  F00D         	goto	i2u610_41
  5542  001A02  EF05  F00D         	goto	i2u610_40
  5543  001A06                     i2u610_41:
  5544  001A06  EF07  F00D         	goto	i2l1140
  5545  001A0A                     i2u610_40:
  5546  001A0A                     
  5547                           ;MCAL/Interrupt/mcal_interrupt_manager.c: 38:         INT1_ISR();
  5548  001A0A  EC61  F018         	call	_INT1_ISR	;wreg free
  5549  001A0E                     i2l1140:
  5550                           
  5551                           ;MCAL/Interrupt/mcal_interrupt_manager.c: 41:     if((1 == INTCON3bits.INT2IE) && (1 == 
      +                          INTCON3bits.INT2IF)){
  5552  001A0E  A8F0               	btfss	240,4,c	;volatile
  5553  001A10  EF0C  F00D         	goto	i2u611_41
  5554  001A14  EF0E  F00D         	goto	i2u611_40
  5555  001A18                     i2u611_41:
  5556  001A18  EF17  F00D         	goto	i2l1142
  5557  001A1C                     i2u611_40:
  5558  001A1C  A2F0               	btfss	240,1,c	;volatile
  5559  001A1E  EF13  F00D         	goto	i2u612_41
  5560  001A22  EF15  F00D         	goto	i2u612_40
  5561  001A26                     i2u612_41:
  5562  001A26  EF17  F00D         	goto	i2l1142
  5563  001A2A                     i2u612_40:
  5564  001A2A                     
  5565                           ;MCAL/Interrupt/mcal_interrupt_manager.c: 42:         INT2_ISR();
  5566  001A2A  EC5F  F018         	call	_INT2_ISR	;wreg free
  5567  001A2E                     i2l1142:
  5568                           
  5569                           ;MCAL/Interrupt/mcal_interrupt_manager.c: 46:     if((1 == PIE1bits.ADIE) && (1 == PIR1b
      +                          its.ADIF)){
  5570  001A2E  AC9D               	btfss	157,6,c	;volatile
  5571  001A30  EF1C  F00D         	goto	i2u613_41
  5572  001A34  EF1E  F00D         	goto	i2u613_40
  5573  001A38                     i2u613_41:
  5574  001A38  EF27  F00D         	goto	i2l1144
  5575  001A3C                     i2u613_40:
  5576  001A3C  AC9E               	btfss	158,6,c	;volatile
  5577  001A3E  EF23  F00D         	goto	i2u614_41
  5578  001A42  EF25  F00D         	goto	i2u614_40
  5579  001A46                     i2u614_41:
  5580  001A46  EF27  F00D         	goto	i2l1144
  5581  001A4A                     i2u614_40:
  5582  001A4A                     
  5583                           ;MCAL/Interrupt/mcal_interrupt_manager.c: 47:         ADC_ISR();
  5584  001A4A  EC6B  F018         	call	_ADC_ISR	;wreg free
  5585  001A4E                     i2l1144:
  5586                           
  5587                           ;MCAL/Interrupt/mcal_interrupt_manager.c: 51:     if((1 == INTCONbits.TMR0IE) && (1 == I
      +                          NTCONbits.TMR0IF)){
  5588  001A4E  AAF2               	btfss	242,5,c	;volatile
  5589  001A50  EF2C  F00D         	goto	i2u615_41
  5590  001A54  EF2E  F00D         	goto	i2u615_40
  5591  001A58                     i2u615_41:
  5592  001A58  EF37  F00D         	goto	i2l1146
  5593  001A5C                     i2u615_40:
  5594  001A5C  A4F2               	btfss	242,2,c	;volatile
  5595  001A5E  EF33  F00D         	goto	i2u616_41
  5596  001A62  EF35  F00D         	goto	i2u616_40
  5597  001A66                     i2u616_41:
  5598  001A66  EF37  F00D         	goto	i2l1146
  5599  001A6A                     i2u616_40:
  5600  001A6A                     
  5601                           ;MCAL/Interrupt/mcal_interrupt_manager.c: 52:         TMR0_ISR();
  5602  001A6A  EC4E  F018         	call	_TMR0_ISR	;wreg free
  5603  001A6E                     i2l1146:
  5604                           
  5605                           ;MCAL/Interrupt/mcal_interrupt_manager.c: 55:     if((1 == PIE1bits.TMR1IE) && (1 == PIR
      +                          1bits.TMR1IF)){
  5606  001A6E  A09D               	btfss	157,0,c	;volatile
  5607  001A70  EF3C  F00D         	goto	i2u617_41
  5608  001A74  EF3E  F00D         	goto	i2u617_40
  5609  001A78                     i2u617_41:
  5610  001A78  EF47  F00D         	goto	i2l1148
  5611  001A7C                     i2u617_40:
  5612  001A7C  A09E               	btfss	158,0,c	;volatile
  5613  001A7E  EF43  F00D         	goto	i2u618_41
  5614  001A82  EF45  F00D         	goto	i2u618_40
  5615  001A86                     i2u618_41:
  5616  001A86  EF47  F00D         	goto	i2l1148
  5617  001A8A                     i2u618_40:
  5618  001A8A                     
  5619                           ;MCAL/Interrupt/mcal_interrupt_manager.c: 56:         TMR1_ISR();
  5620  001A8A  EC48  F018         	call	_TMR1_ISR	;wreg free
  5621  001A8E                     i2l1148:
  5622                           
  5623                           ;MCAL/Interrupt/mcal_interrupt_manager.c: 59:     if((1 == PIE1bits.TMR2IE) && (1 == PIR
      +                          1bits.TMR2IF)){
  5624  001A8E  A29D               	btfss	157,1,c	;volatile
  5625  001A90  EF4C  F00D         	goto	i2u619_41
  5626  001A94  EF4E  F00D         	goto	i2u619_40
  5627  001A98                     i2u619_41:
  5628  001A98  EF57  F00D         	goto	i2l1150
  5629  001A9C                     i2u619_40:
  5630  001A9C  A29E               	btfss	158,1,c	;volatile
  5631  001A9E  EF53  F00D         	goto	i2u620_41
  5632  001AA2  EF55  F00D         	goto	i2u620_40
  5633  001AA6                     i2u620_41:
  5634  001AA6  EF57  F00D         	goto	i2l1150
  5635  001AAA                     i2u620_40:
  5636  001AAA                     
  5637                           ;MCAL/Interrupt/mcal_interrupt_manager.c: 60:         TMR2_ISR();
  5638  001AAA  EC54  F018         	call	_TMR2_ISR	;wreg free
  5639  001AAE                     i2l1150:
  5640                           
  5641                           ;MCAL/Interrupt/mcal_interrupt_manager.c: 63:     if((1 == PIE2bits.TMR3IE) && (1 == PIR
      +                          2bits.TMR3IF)){
  5642  001AAE  A2A0               	btfss	160,1,c	;volatile
  5643  001AB0  EF5C  F00D         	goto	i2u621_41
  5644  001AB4  EF5E  F00D         	goto	i2u621_40
  5645  001AB8                     i2u621_41:
  5646  001AB8  EF67  F00D         	goto	i2l1152
  5647  001ABC                     i2u621_40:
  5648  001ABC  A2A1               	btfss	161,1,c	;volatile
  5649  001ABE  EF63  F00D         	goto	i2u622_41
  5650  001AC2  EF65  F00D         	goto	i2u622_40
  5651  001AC6                     i2u622_41:
  5652  001AC6  EF67  F00D         	goto	i2l1152
  5653  001ACA                     i2u622_40:
  5654  001ACA                     
  5655                           ;MCAL/Interrupt/mcal_interrupt_manager.c: 64:         TMR3_ISR();
  5656  001ACA  EC42  F018         	call	_TMR3_ISR	;wreg free
  5657  001ACE                     i2l1152:
  5658                           
  5659                           ;MCAL/Interrupt/mcal_interrupt_manager.c: 69:     if((1 == INTCONbits.RBIE) && (1 == INT
      +                          CONbits.RBIF) && (PORTBbits.RB4 == GPIO_HIGH) && (RB4_Flag == 0)){
  5660  001ACE  A6F2               	btfss	242,3,c	;volatile
  5661  001AD0  EF6C  F00D         	goto	i2u623_41
  5662  001AD4  EF6E  F00D         	goto	i2u623_40
  5663  001AD8                     i2u623_41:
  5664  001AD8  EF89  F00D         	goto	i2l1154
  5665  001ADC                     i2u623_40:
  5666  001ADC  A0F2               	btfss	242,0,c	;volatile
  5667  001ADE  EF73  F00D         	goto	i2u624_41
  5668  001AE2  EF75  F00D         	goto	i2u624_40
  5669  001AE6                     i2u624_41:
  5670  001AE6  EF89  F00D         	goto	i2l1154
  5671  001AEA                     i2u624_40:
  5672  001AEA  A881               	btfss	129,4,c	;volatile
  5673  001AEC  EF7A  F00D         	goto	i2u625_41
  5674  001AF0  EF7C  F00D         	goto	i2u625_40
  5675  001AF4                     i2u625_41:
  5676  001AF4  EF89  F00D         	goto	i2l1154
  5677  001AF8                     i2u625_40:
  5678  001AF8  506A               	movf	_RB4_Flag^0,w,c	;volatile
  5679  001AFA  A4D8               	btfss	status,2,c
  5680  001AFC  EF82  F00D         	goto	i2u626_41
  5681  001B00  EF84  F00D         	goto	i2u626_40
  5682  001B04                     i2u626_41:
  5683  001B04  EF89  F00D         	goto	i2l1154
  5684  001B08                     i2u626_40:
  5685  001B08                     
  5686                           ;MCAL/Interrupt/mcal_interrupt_manager.c: 70:         RB4_Flag = 0;
  5687  001B08  0E00               	movlw	0
  5688  001B0A  6E6A               	movwf	_RB4_Flag^0,c	;volatile
  5689  001B0C                     
  5690                           ;MCAL/Interrupt/mcal_interrupt_manager.c: 71:         RB4_ISR(0);
  5691  001B0C  0E00               	movlw	0
  5692  001B0E  EC35  F018         	call	_RB4_ISR
  5693  001B12                     i2l1154:
  5694                           
  5695                           ;MCAL/Interrupt/mcal_interrupt_manager.c: 74:     if((1 == INTCONbits.RBIE) && (1 == INT
      +                          CONbits.RBIF) && (PORTBbits.RB4 == GPIO_LOW) && (RB4_Flag == 1)){
  5696  001B12  A6F2               	btfss	242,3,c	;volatile
  5697  001B14  EF8E  F00D         	goto	i2u627_41
  5698  001B18  EF90  F00D         	goto	i2u627_40
  5699  001B1C                     i2u627_41:
  5700  001B1C  EFAB  F00D         	goto	i2l1156
  5701  001B20                     i2u627_40:
  5702  001B20  A0F2               	btfss	242,0,c	;volatile
  5703  001B22  EF95  F00D         	goto	i2u628_41
  5704  001B26  EF97  F00D         	goto	i2u628_40
  5705  001B2A                     i2u628_41:
  5706  001B2A  EFAB  F00D         	goto	i2l1156
  5707  001B2E                     i2u628_40:
  5708  001B2E  B881               	btfsc	129,4,c	;volatile
  5709  001B30  EF9C  F00D         	goto	i2u629_41
  5710  001B34  EF9E  F00D         	goto	i2u629_40
  5711  001B38                     i2u629_41:
  5712  001B38  EFAB  F00D         	goto	i2l1156
  5713  001B3C                     i2u629_40:
  5714  001B3C  046A               	decf	_RB4_Flag^0,w,c	;volatile
  5715  001B3E  A4D8               	btfss	status,2,c
  5716  001B40  EFA4  F00D         	goto	i2u630_41
  5717  001B44  EFA6  F00D         	goto	i2u630_40
  5718  001B48                     i2u630_41:
  5719  001B48  EFAB  F00D         	goto	i2l1156
  5720  001B4C                     i2u630_40:
  5721  001B4C                     
  5722                           ;MCAL/Interrupt/mcal_interrupt_manager.c: 75:         RB4_Flag = 1;
  5723  001B4C  0E01               	movlw	1
  5724  001B4E  6E6A               	movwf	_RB4_Flag^0,c	;volatile
  5725  001B50                     
  5726                           ;MCAL/Interrupt/mcal_interrupt_manager.c: 76:         RB4_ISR(1);
  5727  001B50  0E01               	movlw	1
  5728  001B52  EC35  F018         	call	_RB4_ISR
  5729  001B56                     i2l1156:
  5730                           
  5731                           ;MCAL/Interrupt/mcal_interrupt_manager.c: 81:     if((1 == INTCONbits.RBIE) && (1 == INT
      +                          CONbits.RBIF) && (PORTBbits.RB5 == GPIO_HIGH) && (RB5_Flag == 0)){
  5732  001B56  A6F2               	btfss	242,3,c	;volatile
  5733  001B58  EFB0  F00D         	goto	i2u631_41
  5734  001B5C  EFB2  F00D         	goto	i2u631_40
  5735  001B60                     i2u631_41:
  5736  001B60  EFCD  F00D         	goto	i2l1158
  5737  001B64                     i2u631_40:
  5738  001B64  A0F2               	btfss	242,0,c	;volatile
  5739  001B66  EFB7  F00D         	goto	i2u632_41
  5740  001B6A  EFB9  F00D         	goto	i2u632_40
  5741  001B6E                     i2u632_41:
  5742  001B6E  EFCD  F00D         	goto	i2l1158
  5743  001B72                     i2u632_40:
  5744  001B72  AA81               	btfss	129,5,c	;volatile
  5745  001B74  EFBE  F00D         	goto	i2u633_41
  5746  001B78  EFC0  F00D         	goto	i2u633_40
  5747  001B7C                     i2u633_41:
  5748  001B7C  EFCD  F00D         	goto	i2l1158
  5749  001B80                     i2u633_40:
  5750  001B80  5069               	movf	_RB5_Flag^0,w,c	;volatile
  5751  001B82  A4D8               	btfss	status,2,c
  5752  001B84  EFC6  F00D         	goto	i2u634_41
  5753  001B88  EFC8  F00D         	goto	i2u634_40
  5754  001B8C                     i2u634_41:
  5755  001B8C  EFCD  F00D         	goto	i2l1158
  5756  001B90                     i2u634_40:
  5757  001B90                     
  5758                           ;MCAL/Interrupt/mcal_interrupt_manager.c: 82:         RB5_Flag = 0;
  5759  001B90  0E00               	movlw	0
  5760  001B92  6E69               	movwf	_RB5_Flag^0,c	;volatile
  5761  001B94                     
  5762                           ;MCAL/Interrupt/mcal_interrupt_manager.c: 83:         RB5_ISR(0);
  5763  001B94  0E00               	movlw	0
  5764  001B96  EC28  F018         	call	_RB5_ISR
  5765  001B9A                     i2l1158:
  5766                           
  5767                           ;MCAL/Interrupt/mcal_interrupt_manager.c: 86:     if((1 == INTCONbits.RBIE) && (1 == INT
      +                          CONbits.RBIF) && (PORTBbits.RB5 == GPIO_LOW) && (RB5_Flag == 1)){
  5768  001B9A  A6F2               	btfss	242,3,c	;volatile
  5769  001B9C  EFD2  F00D         	goto	i2u635_41
  5770  001BA0  EFD4  F00D         	goto	i2u635_40
  5771  001BA4                     i2u635_41:
  5772  001BA4  EFEF  F00D         	goto	i2l1160
  5773  001BA8                     i2u635_40:
  5774  001BA8  A0F2               	btfss	242,0,c	;volatile
  5775  001BAA  EFD9  F00D         	goto	i2u636_41
  5776  001BAE  EFDB  F00D         	goto	i2u636_40
  5777  001BB2                     i2u636_41:
  5778  001BB2  EFEF  F00D         	goto	i2l1160
  5779  001BB6                     i2u636_40:
  5780  001BB6  BA81               	btfsc	129,5,c	;volatile
  5781  001BB8  EFE0  F00D         	goto	i2u637_41
  5782  001BBC  EFE2  F00D         	goto	i2u637_40
  5783  001BC0                     i2u637_41:
  5784  001BC0  EFEF  F00D         	goto	i2l1160
  5785  001BC4                     i2u637_40:
  5786  001BC4  0469               	decf	_RB5_Flag^0,w,c	;volatile
  5787  001BC6  A4D8               	btfss	status,2,c
  5788  001BC8  EFE8  F00D         	goto	i2u638_41
  5789  001BCC  EFEA  F00D         	goto	i2u638_40
  5790  001BD0                     i2u638_41:
  5791  001BD0  EFEF  F00D         	goto	i2l1160
  5792  001BD4                     i2u638_40:
  5793  001BD4                     
  5794                           ;MCAL/Interrupt/mcal_interrupt_manager.c: 87:         RB5_Flag = 1;
  5795  001BD4  0E01               	movlw	1
  5796  001BD6  6E69               	movwf	_RB5_Flag^0,c	;volatile
  5797  001BD8                     
  5798                           ;MCAL/Interrupt/mcal_interrupt_manager.c: 88:         RB5_ISR(1);
  5799  001BD8  0E01               	movlw	1
  5800  001BDA  EC28  F018         	call	_RB5_ISR
  5801  001BDE                     i2l1160:
  5802                           
  5803                           ;MCAL/Interrupt/mcal_interrupt_manager.c: 93:     if((1 == INTCONbits.RBIE) && (1 == INT
      +                          CONbits.RBIF) && (PORTBbits.RB6 == GPIO_HIGH) && (RB6_Flag == 0)){
  5804  001BDE  A6F2               	btfss	242,3,c	;volatile
  5805  001BE0  EFF4  F00D         	goto	i2u639_41
  5806  001BE4  EFF6  F00D         	goto	i2u639_40
  5807  001BE8                     i2u639_41:
  5808  001BE8  EF11  F00E         	goto	i2l1162
  5809  001BEC                     i2u639_40:
  5810  001BEC  A0F2               	btfss	242,0,c	;volatile
  5811  001BEE  EFFB  F00D         	goto	i2u640_41
  5812  001BF2  EFFD  F00D         	goto	i2u640_40
  5813  001BF6                     i2u640_41:
  5814  001BF6  EF11  F00E         	goto	i2l1162
  5815  001BFA                     i2u640_40:
  5816  001BFA  AC81               	btfss	129,6,c	;volatile
  5817  001BFC  EF02  F00E         	goto	i2u641_41
  5818  001C00  EF04  F00E         	goto	i2u641_40
  5819  001C04                     i2u641_41:
  5820  001C04  EF11  F00E         	goto	i2l1162
  5821  001C08                     i2u641_40:
  5822  001C08  5068               	movf	_RB6_Flag^0,w,c	;volatile
  5823  001C0A  A4D8               	btfss	status,2,c
  5824  001C0C  EF0A  F00E         	goto	i2u642_41
  5825  001C10  EF0C  F00E         	goto	i2u642_40
  5826  001C14                     i2u642_41:
  5827  001C14  EF11  F00E         	goto	i2l1162
  5828  001C18                     i2u642_40:
  5829  001C18                     
  5830                           ;MCAL/Interrupt/mcal_interrupt_manager.c: 94:         RB6_Flag = 0;
  5831  001C18  0E00               	movlw	0
  5832  001C1A  6E68               	movwf	_RB6_Flag^0,c	;volatile
  5833  001C1C                     
  5834                           ;MCAL/Interrupt/mcal_interrupt_manager.c: 95:         RB6_ISR(0);
  5835  001C1C  0E00               	movlw	0
  5836  001C1E  EC1B  F018         	call	_RB6_ISR
  5837  001C22                     i2l1162:
  5838                           
  5839                           ;MCAL/Interrupt/mcal_interrupt_manager.c: 98:     if((1 == INTCONbits.RBIE) && (1 == INT
      +                          CONbits.RBIF) && (PORTBbits.RB6 == GPIO_LOW) && (RB6_Flag == 1)){
  5840  001C22  A6F2               	btfss	242,3,c	;volatile
  5841  001C24  EF16  F00E         	goto	i2u643_41
  5842  001C28  EF18  F00E         	goto	i2u643_40
  5843  001C2C                     i2u643_41:
  5844  001C2C  EF33  F00E         	goto	i2l1164
  5845  001C30                     i2u643_40:
  5846  001C30  A0F2               	btfss	242,0,c	;volatile
  5847  001C32  EF1D  F00E         	goto	i2u644_41
  5848  001C36  EF1F  F00E         	goto	i2u644_40
  5849  001C3A                     i2u644_41:
  5850  001C3A  EF33  F00E         	goto	i2l1164
  5851  001C3E                     i2u644_40:
  5852  001C3E  BC81               	btfsc	129,6,c	;volatile
  5853  001C40  EF24  F00E         	goto	i2u645_41
  5854  001C44  EF26  F00E         	goto	i2u645_40
  5855  001C48                     i2u645_41:
  5856  001C48  EF33  F00E         	goto	i2l1164
  5857  001C4C                     i2u645_40:
  5858  001C4C  0468               	decf	_RB6_Flag^0,w,c	;volatile
  5859  001C4E  A4D8               	btfss	status,2,c
  5860  001C50  EF2C  F00E         	goto	i2u646_41
  5861  001C54  EF2E  F00E         	goto	i2u646_40
  5862  001C58                     i2u646_41:
  5863  001C58  EF33  F00E         	goto	i2l1164
  5864  001C5C                     i2u646_40:
  5865  001C5C                     
  5866                           ;MCAL/Interrupt/mcal_interrupt_manager.c: 99:         RB6_Flag = 1;
  5867  001C5C  0E01               	movlw	1
  5868  001C5E  6E68               	movwf	_RB6_Flag^0,c	;volatile
  5869  001C60                     
  5870                           ;MCAL/Interrupt/mcal_interrupt_manager.c: 100:         RB6_ISR(1);
  5871  001C60  0E01               	movlw	1
  5872  001C62  EC1B  F018         	call	_RB6_ISR
  5873  001C66                     i2l1164:
  5874                           
  5875                           ;MCAL/Interrupt/mcal_interrupt_manager.c: 105:     if((1 == INTCONbits.RBIE) && (1 == IN
      +                          TCONbits.RBIF) && (PORTBbits.RB7 == GPIO_HIGH) && (RB7_Flag == 0)){
  5876  001C66  A6F2               	btfss	242,3,c	;volatile
  5877  001C68  EF38  F00E         	goto	i2u647_41
  5878  001C6C  EF3A  F00E         	goto	i2u647_40
  5879  001C70                     i2u647_41:
  5880  001C70  EF55  F00E         	goto	i2l1166
  5881  001C74                     i2u647_40:
  5882  001C74  A0F2               	btfss	242,0,c	;volatile
  5883  001C76  EF3F  F00E         	goto	i2u648_41
  5884  001C7A  EF41  F00E         	goto	i2u648_40
  5885  001C7E                     i2u648_41:
  5886  001C7E  EF55  F00E         	goto	i2l1166
  5887  001C82                     i2u648_40:
  5888  001C82  AE81               	btfss	129,7,c	;volatile
  5889  001C84  EF46  F00E         	goto	i2u649_41
  5890  001C88  EF48  F00E         	goto	i2u649_40
  5891  001C8C                     i2u649_41:
  5892  001C8C  EF55  F00E         	goto	i2l1166
  5893  001C90                     i2u649_40:
  5894  001C90  5067               	movf	_RB7_Flag^0,w,c	;volatile
  5895  001C92  A4D8               	btfss	status,2,c
  5896  001C94  EF4E  F00E         	goto	i2u650_41
  5897  001C98  EF50  F00E         	goto	i2u650_40
  5898  001C9C                     i2u650_41:
  5899  001C9C  EF55  F00E         	goto	i2l1166
  5900  001CA0                     i2u650_40:
  5901  001CA0                     
  5902                           ;MCAL/Interrupt/mcal_interrupt_manager.c: 106:         RB7_Flag = 0;
  5903  001CA0  0E00               	movlw	0
  5904  001CA2  6E67               	movwf	_RB7_Flag^0,c	;volatile
  5905  001CA4                     
  5906                           ;MCAL/Interrupt/mcal_interrupt_manager.c: 107:         RB7_ISR(0);
  5907  001CA4  0E00               	movlw	0
  5908  001CA6  EC0E  F018         	call	_RB7_ISR
  5909  001CAA                     i2l1166:
  5910                           
  5911                           ;MCAL/Interrupt/mcal_interrupt_manager.c: 110:     if((1 == INTCONbits.RBIE) && (1 == IN
      +                          TCONbits.RBIF) && (PORTBbits.RB7 == GPIO_LOW) && (RB7_Flag == 1)){
  5912  001CAA  A6F2               	btfss	242,3,c	;volatile
  5913  001CAC  EF5A  F00E         	goto	i2u651_41
  5914  001CB0  EF5C  F00E         	goto	i2u651_40
  5915  001CB4                     i2u651_41:
  5916  001CB4  EF77  F00E         	goto	i2l1168
  5917  001CB8                     i2u651_40:
  5918  001CB8  A0F2               	btfss	242,0,c	;volatile
  5919  001CBA  EF61  F00E         	goto	i2u652_41
  5920  001CBE  EF63  F00E         	goto	i2u652_40
  5921  001CC2                     i2u652_41:
  5922  001CC2  EF77  F00E         	goto	i2l1168
  5923  001CC6                     i2u652_40:
  5924  001CC6  BE81               	btfsc	129,7,c	;volatile
  5925  001CC8  EF68  F00E         	goto	i2u653_41
  5926  001CCC  EF6A  F00E         	goto	i2u653_40
  5927  001CD0                     i2u653_41:
  5928  001CD0  EF77  F00E         	goto	i2l1168
  5929  001CD4                     i2u653_40:
  5930  001CD4  0467               	decf	_RB7_Flag^0,w,c	;volatile
  5931  001CD6  A4D8               	btfss	status,2,c
  5932  001CD8  EF70  F00E         	goto	i2u654_41
  5933  001CDC  EF72  F00E         	goto	i2u654_40
  5934  001CE0                     i2u654_41:
  5935  001CE0  EF77  F00E         	goto	i2l1168
  5936  001CE4                     i2u654_40:
  5937  001CE4                     
  5938                           ;MCAL/Interrupt/mcal_interrupt_manager.c: 111:         RB7_Flag = 1;
  5939  001CE4  0E01               	movlw	1
  5940  001CE6  6E67               	movwf	_RB7_Flag^0,c	;volatile
  5941  001CE8                     
  5942                           ;MCAL/Interrupt/mcal_interrupt_manager.c: 112:         RB7_ISR(1);
  5943  001CE8  0E01               	movlw	1
  5944  001CEA  EC0E  F018         	call	_RB7_ISR
  5945  001CEE                     i2l1168:
  5946                           
  5947                           ;MCAL/Interrupt/mcal_interrupt_manager.c: 121:     if((1 == PIE1bits.CCP1IE) && (1 == PI
      +                          R1bits.CCP1IF)){
  5948  001CEE  A49D               	btfss	157,2,c	;volatile
  5949  001CF0  EF7C  F00E         	goto	i2u655_41
  5950  001CF4  EF7E  F00E         	goto	i2u655_40
  5951  001CF8                     i2u655_41:
  5952  001CF8  EF87  F00E         	goto	i2l1170
  5953  001CFC                     i2u655_40:
  5954  001CFC  A49E               	btfss	158,2,c	;volatile
  5955  001CFE  EF83  F00E         	goto	i2u656_41
  5956  001D02  EF85  F00E         	goto	i2u656_40
  5957  001D06                     i2u656_41:
  5958  001D06  EF87  F00E         	goto	i2l1170
  5959  001D0A                     i2u656_40:
  5960  001D0A                     
  5961                           ;MCAL/Interrupt/mcal_interrupt_manager.c: 122:         CCP1_ISR();
  5962  001D0A  EC69  F018         	call	_CCP1_ISR	;wreg free
  5963  001D0E                     i2l1170:
  5964                           
  5965                           ;MCAL/Interrupt/mcal_interrupt_manager.c: 125:     if((1 == PIE2bits.CCP2IE) && (1 == PI
      +                          R2bits.CCP2IF)){
  5966  001D0E  A0A0               	btfss	160,0,c	;volatile
  5967  001D10  EF8C  F00E         	goto	i2u657_41
  5968  001D14  EF8E  F00E         	goto	i2u657_40
  5969  001D18                     i2u657_41:
  5970  001D18  EF97  F00E         	goto	i2l1172
  5971  001D1C                     i2u657_40:
  5972  001D1C  A0A1               	btfss	161,0,c	;volatile
  5973  001D1E  EF93  F00E         	goto	i2u658_41
  5974  001D22  EF95  F00E         	goto	i2u658_40
  5975  001D26                     i2u658_41:
  5976  001D26  EF97  F00E         	goto	i2l1172
  5977  001D2A                     i2u658_40:
  5978  001D2A                     
  5979                           ;MCAL/Interrupt/mcal_interrupt_manager.c: 126:         CCP2_ISR();
  5980  001D2A  EC67  F018         	call	_CCP2_ISR	;wreg free
  5981  001D2E                     i2l1172:
  5982                           
  5983                           ;MCAL/Interrupt/mcal_interrupt_manager.c: 133:     if((1 == PIE1bits.TXIE) && (1 == PIR1
      +                          bits.TXIF)){
  5984  001D2E  A89D               	btfss	157,4,c	;volatile
  5985  001D30  EF9C  F00E         	goto	i2u659_41
  5986  001D34  EF9E  F00E         	goto	i2u659_40
  5987  001D38                     i2u659_41:
  5988  001D38  EFA7  F00E         	goto	i2l1174
  5989  001D3C                     i2u659_40:
  5990  001D3C  A89E               	btfss	158,4,c	;volatile
  5991  001D3E  EFA3  F00E         	goto	i2u660_41
  5992  001D42  EFA5  F00E         	goto	i2u660_40
  5993  001D46                     i2u660_41:
  5994  001D46  EFA7  F00E         	goto	i2l1174
  5995  001D4A                     i2u660_40:
  5996  001D4A                     
  5997                           ;MCAL/Interrupt/mcal_interrupt_manager.c: 134:         EUSART_TX_ISR();
  5998  001D4A  EC65  F018         	call	_EUSART_TX_ISR	;wreg free
  5999  001D4E                     i2l1174:
  6000                           
  6001                           ;MCAL/Interrupt/mcal_interrupt_manager.c: 138:     if((1 == PIE1bits.RCIE) && (1 == PIR1
      +                          bits.RCIF)){
  6002  001D4E  AA9D               	btfss	157,5,c	;volatile
  6003  001D50  EFAC  F00E         	goto	i2u661_41
  6004  001D54  EFAE  F00E         	goto	i2u661_40
  6005  001D58                     i2u661_41:
  6006  001D58  EFB7  F00E         	goto	i2l1176
  6007  001D5C                     i2u661_40:
  6008  001D5C  AA9E               	btfss	158,5,c	;volatile
  6009  001D5E  EFB3  F00E         	goto	i2u662_41
  6010  001D62  EFB5  F00E         	goto	i2u662_40
  6011  001D66                     i2u662_41:
  6012  001D66  EFB7  F00E         	goto	i2l1176
  6013  001D6A                     i2u662_40:
  6014  001D6A                     
  6015                           ;MCAL/Interrupt/mcal_interrupt_manager.c: 139:         EUSART_RX_ISR();
  6016  001D6A  EC6D  F018         	call	_EUSART_RX_ISR	;wreg free
  6017  001D6E                     i2l1176:
  6018                           
  6019                           ;MCAL/Interrupt/mcal_interrupt_manager.c: 147:     if((1 == PIE1bits.SSPIE) && (1 == PIR
      +                          1bits.SSPIF)){
  6020  001D6E  A69D               	btfss	157,3,c	;volatile
  6021  001D70  EFBC  F00E         	goto	i2u663_41
  6022  001D74  EFBE  F00E         	goto	i2u663_40
  6023  001D78                     i2u663_41:
  6024  001D78  EFC7  F00E         	goto	i2l1178
  6025  001D7C                     i2u663_40:
  6026  001D7C  A69E               	btfss	158,3,c	;volatile
  6027  001D7E  EFC3  F00E         	goto	i2u664_41
  6028  001D82  EFC5  F00E         	goto	i2u664_40
  6029  001D86                     i2u664_41:
  6030  001D86  EFC7  F00E         	goto	i2l1178
  6031  001D8A                     i2u664_40:
  6032  001D8A                     
  6033                           ;MCAL/Interrupt/mcal_interrupt_manager.c: 148:         MSSP_I2C_ISR();
  6034  001D8A  EC5B  F018         	call	_MSSP_I2C_ISR	;wreg free
  6035  001D8E                     i2l1178:
  6036                           
  6037                           ;MCAL/Interrupt/mcal_interrupt_manager.c: 152:     if((1 == PIE2bits.BCLIE) && (1 == PIR
      +                          2bits.BCLIF)){
  6038  001D8E  A6A0               	btfss	160,3,c	;volatile
  6039  001D90  EFCC  F00E         	goto	i2u665_41
  6040  001D94  EFCE  F00E         	goto	i2u665_40
  6041  001D98                     i2u665_41:
  6042  001D98  EFD7  F00E         	goto	i2l1181
  6043  001D9C                     i2u665_40:
  6044  001D9C  A6A1               	btfss	161,3,c	;volatile
  6045  001D9E  EFD3  F00E         	goto	i2u666_41
  6046  001DA2  EFD5  F00E         	goto	i2u666_40
  6047  001DA6                     i2u666_41:
  6048  001DA6  EFD7  F00E         	goto	i2l1181
  6049  001DAA                     i2u666_40:
  6050  001DAA                     
  6051                           ;MCAL/Interrupt/mcal_interrupt_manager.c: 153:         MSSP_I2C_BC_ISR();
  6052  001DAA  EC5D  F018         	call	_MSSP_I2C_BC_ISR	;wreg free
  6053  001DAE                     i2l1181:
  6054  001DAE  926D               	bcf	int$flags,1,c	;clear compiler interrupt flag (level 2)
  6055  001DB0  0011               	retfie		f
  6056  001DB2                     __end_of_InterruptManagerHigh:
  6057                           	callstack 0
  6058                           
  6059 ;; *************** function _TMR3_ISR *****************
  6060 ;; Defined at:
  6061 ;;		line 100 in file "MCAL/Timer3/hal_timr3.c"
  6062 ;; Parameters:    Size  Location     Type
  6063 ;;		None
  6064 ;; Auto vars:     Size  Location     Type
  6065 ;;		None
  6066 ;; Return value:  Size  Location     Type
  6067 ;;                  1    wreg      void 
  6068 ;; Registers used:
  6069 ;;		wreg, status,2
  6070 ;; Tracked objects:
  6071 ;;		On entry : 0/0
  6072 ;;		On exit  : 0/0
  6073 ;;		Unchanged: 0/0
  6074 ;; Data sizes:     COMRAM   BANK0   BANK1   BANK2   BANK3   BANK4   BANK5   BANK6   BANK7   BANK8   BANK9  BANK10  BANK1
      +1  BANK12  BANK13  BANK14  BANK15
  6075 ;;      Params:         0       0       0       0       0       0       0       0       0       0       0       0       
      +0       0       0       0       0
  6076 ;;      Locals:         0       0       0       0       0       0       0       0       0       0       0       0       
      +0       0       0       0       0
  6077 ;;      Temps:          0       0       0       0       0       0       0       0       0       0       0       0       
      +0       0       0       0       0
  6078 ;;      Totals:         0       0       0       0       0       0       0       0       0       0       0       0       
      +0       0       0       0       0
  6079 ;;Total ram usage:        0 bytes
  6080 ;; Hardware stack levels used: 1
  6081 ;; This function calls:
  6082 ;;		Nothing
  6083 ;; This function is called by:
  6084 ;;		_InterruptManagerHigh
  6085 ;; This function uses a non-reentrant model
  6086 ;;
  6087                           
  6088                           	psect	text27
  6089  003084                     __ptext27:
  6090                           	callstack 0
  6091  003084                     _TMR3_ISR:
  6092                           	callstack 24
  6093  003084                     
  6094                           ;MCAL/Timer3/hal_timr3.c: 101:     (PIR2bits.TMR3IF = 0);
  6095  003084  92A1               	bcf	161,1,c	;volatile
  6096  003086                     
  6097                           ;MCAL/Timer3/hal_timr3.c: 102:     TMR3H = (timer3_preload) >> 8;
  6098  003086  504D               	movf	(_timer3_preload+1)^0,w,c
  6099  003088  6EB3               	movwf	179,c	;volatile
  6100  00308A                     
  6101                           ;MCAL/Timer3/hal_timr3.c: 103:     TMR3L = (uint8)(timer3_preload);
  6102  00308A  C04C  FFB2         	movff	_timer3_preload,4018	;volatile
  6103  00308E  0012               	return		;funcret
  6104  003090                     __end_of_TMR3_ISR:
  6105                           	callstack 0
  6106                           
  6107 ;; *************** function _TMR2_ISR *****************
  6108 ;; Defined at:
  6109 ;;		line 115 in file "MCAL/Timer2/hal_timr2.c"
  6110 ;; Parameters:    Size  Location     Type
  6111 ;;		None
  6112 ;; Auto vars:     Size  Location     Type
  6113 ;;		None
  6114 ;; Return value:  Size  Location     Type
  6115 ;;                  1    wreg      void 
  6116 ;; Registers used:
  6117 ;;		None
  6118 ;; Tracked objects:
  6119 ;;		On entry : 0/0
  6120 ;;		On exit  : 0/0
  6121 ;;		Unchanged: 0/0
  6122 ;; Data sizes:     COMRAM   BANK0   BANK1   BANK2   BANK3   BANK4   BANK5   BANK6   BANK7   BANK8   BANK9  BANK10  BANK1
      +1  BANK12  BANK13  BANK14  BANK15
  6123 ;;      Params:         0       0       0       0       0       0       0       0       0       0       0       0       
      +0       0       0       0       0
  6124 ;;      Locals:         0       0       0       0       0       0       0       0       0       0       0       0       
      +0       0       0       0       0
  6125 ;;      Temps:          0       0       0       0       0       0       0       0       0       0       0       0       
      +0       0       0       0       0
  6126 ;;      Totals:         0       0       0       0       0       0       0       0       0       0       0       0       
      +0       0       0       0       0
  6127 ;;Total ram usage:        0 bytes
  6128 ;; Hardware stack levels used: 1
  6129 ;; This function calls:
  6130 ;;		Nothing
  6131 ;; This function is called by:
  6132 ;;		_InterruptManagerHigh
  6133 ;; This function uses a non-reentrant model
  6134 ;;
  6135                           
  6136                           	psect	text28
  6137  0030A8                     __ptext28:
  6138                           	callstack 0
  6139  0030A8                     _TMR2_ISR:
  6140                           	callstack 24
  6141  0030A8                     
  6142                           ;MCAL/Timer2/hal_timr2.c: 116:     (PIR1bits.TMR2IF = 0);
  6143  0030A8  929E               	bcf	158,1,c	;volatile
  6144                           
  6145                           ;MCAL/Timer2/hal_timr2.c: 117:     TMR2 = timer2_preload;
  6146  0030AA  C05D  FFCC         	movff	_timer2_preload,4044	;volatile
  6147  0030AE  0012               	return		;funcret
  6148  0030B0                     __end_of_TMR2_ISR:
  6149                           	callstack 0
  6150                           
  6151 ;; *************** function _TMR1_ISR *****************
  6152 ;; Defined at:
  6153 ;;		line 139 in file "MCAL/Timer1/hal_timr1.c"
  6154 ;; Parameters:    Size  Location     Type
  6155 ;;		None
  6156 ;; Auto vars:     Size  Location     Type
  6157 ;;		None
  6158 ;; Return value:  Size  Location     Type
  6159 ;;                  1    wreg      void 
  6160 ;; Registers used:
  6161 ;;		wreg, status,2
  6162 ;; Tracked objects:
  6163 ;;		On entry : 0/0
  6164 ;;		On exit  : 0/0
  6165 ;;		Unchanged: 0/0
  6166 ;; Data sizes:     COMRAM   BANK0   BANK1   BANK2   BANK3   BANK4   BANK5   BANK6   BANK7   BANK8   BANK9  BANK10  BANK1
      +1  BANK12  BANK13  BANK14  BANK15
  6167 ;;      Params:         0       0       0       0       0       0       0       0       0       0       0       0       
      +0       0       0       0       0
  6168 ;;      Locals:         0       0       0       0       0       0       0       0       0       0       0       0       
      +0       0       0       0       0
  6169 ;;      Temps:          0       0       0       0       0       0       0       0       0       0       0       0       
      +0       0       0       0       0
  6170 ;;      Totals:         0       0       0       0       0       0       0       0       0       0       0       0       
      +0       0       0       0       0
  6171 ;;Total ram usage:        0 bytes
  6172 ;; Hardware stack levels used: 1
  6173 ;; This function calls:
  6174 ;;		Nothing
  6175 ;; This function is called by:
  6176 ;;		_InterruptManagerHigh
  6177 ;; This function uses a non-reentrant model
  6178 ;;
  6179                           
  6180                           	psect	text29
  6181  003090                     __ptext29:
  6182                           	callstack 0
  6183  003090                     _TMR1_ISR:
  6184                           	callstack 24
  6185  003090                     
  6186                           ;MCAL/Timer1/hal_timr1.c: 140:     (PIR1bits.TMR1IF = 0);
  6187  003090  909E               	bcf	158,0,c	;volatile
  6188  003092                     
  6189                           ;MCAL/Timer1/hal_timr1.c: 141:     TMR1H = (timer1_preload) >> 8;
  6190  003092  504F               	movf	(_timer1_preload+1)^0,w,c
  6191  003094  6ECF               	movwf	207,c	;volatile
  6192  003096                     
  6193                           ;MCAL/Timer1/hal_timr1.c: 142:     TMR1L = (uint8)(timer1_preload);
  6194  003096  C04E  FFCE         	movff	_timer1_preload,4046	;volatile
  6195  00309A  0012               	return		;funcret
  6196  00309C                     __end_of_TMR1_ISR:
  6197                           	callstack 0
  6198                           
  6199 ;; *************** function _TMR0_ISR *****************
  6200 ;; Defined at:
  6201 ;;		line 137 in file "MCAL/Timer0/hal_timr0.c"
  6202 ;; Parameters:    Size  Location     Type
  6203 ;;		None
  6204 ;; Auto vars:     Size  Location     Type
  6205 ;;		None
  6206 ;; Return value:  Size  Location     Type
  6207 ;;                  1    wreg      void 
  6208 ;; Registers used:
  6209 ;;		wreg, status,2
  6210 ;; Tracked objects:
  6211 ;;		On entry : 0/0
  6212 ;;		On exit  : 0/0
  6213 ;;		Unchanged: 0/0
  6214 ;; Data sizes:     COMRAM   BANK0   BANK1   BANK2   BANK3   BANK4   BANK5   BANK6   BANK7   BANK8   BANK9  BANK10  BANK1
      +1  BANK12  BANK13  BANK14  BANK15
  6215 ;;      Params:         0       0       0       0       0       0       0       0       0       0       0       0       
      +0       0       0       0       0
  6216 ;;      Locals:         0       0       0       0       0       0       0       0       0       0       0       0       
      +0       0       0       0       0
  6217 ;;      Temps:          0       0       0       0       0       0       0       0       0       0       0       0       
      +0       0       0       0       0
  6218 ;;      Totals:         0       0       0       0       0       0       0       0       0       0       0       0       
      +0       0       0       0       0
  6219 ;;Total ram usage:        0 bytes
  6220 ;; Hardware stack levels used: 1
  6221 ;; This function calls:
  6222 ;;		Nothing
  6223 ;; This function is called by:
  6224 ;;		_InterruptManagerHigh
  6225 ;; This function uses a non-reentrant model
  6226 ;;
  6227                           
  6228                           	psect	text30
  6229  00309C                     __ptext30:
  6230                           	callstack 0
  6231  00309C                     _TMR0_ISR:
  6232                           	callstack 24
  6233  00309C                     
  6234                           ;MCAL/Timer0/hal_timr0.c: 138:     (INTCONbits.TMR0IF = 0);
  6235  00309C  94F2               	bcf	242,2,c	;volatile
  6236  00309E                     
  6237                           ;MCAL/Timer0/hal_timr0.c: 139:     TMR0H = (timer0_preload) >> 8;
  6238  00309E  5051               	movf	(_timer0_preload+1)^0,w,c
  6239  0030A0  6ED7               	movwf	215,c	;volatile
  6240  0030A2                     
  6241                           ;MCAL/Timer0/hal_timr0.c: 140:     TMR0L = (uint8)(timer0_preload);
  6242  0030A2  C050  FFD6         	movff	_timer0_preload,4054	;volatile
  6243  0030A6  0012               	return		;funcret
  6244  0030A8                     __end_of_TMR0_ISR:
  6245                           	callstack 0
  6246                           
  6247 ;; *************** function _RB7_ISR *****************
  6248 ;; Defined at:
  6249 ;;		line 169 in file "MCAL/Interrupt/mcal_external_interrupt.c"
  6250 ;; Parameters:    Size  Location     Type
  6251 ;;  RB7_Source      1    wreg     unsigned char 
  6252 ;; Auto vars:     Size  Location     Type
  6253 ;;  RB7_Source      1    0[COMRAM] unsigned char 
  6254 ;; Return value:  Size  Location     Type
  6255 ;;                  1    wreg      void 
  6256 ;; Registers used:
  6257 ;;		wreg, status,2, status,0
  6258 ;; Tracked objects:
  6259 ;;		On entry : 0/0
  6260 ;;		On exit  : 0/0
  6261 ;;		Unchanged: 0/0
  6262 ;; Data sizes:     COMRAM   BANK0   BANK1   BANK2   BANK3   BANK4   BANK5   BANK6   BANK7   BANK8   BANK9  BANK10  BANK1
      +1  BANK12  BANK13  BANK14  BANK15
  6263 ;;      Params:         0       0       0       0       0       0       0       0       0       0       0       0       
      +0       0       0       0       0
  6264 ;;      Locals:         1       0       0       0       0       0       0       0       0       0       0       0       
      +0       0       0       0       0
  6265 ;;      Temps:          0       0       0       0       0       0       0       0       0       0       0       0       
      +0       0       0       0       0
  6266 ;;      Totals:         1       0       0       0       0       0       0       0       0       0       0       0       
      +0       0       0       0       0
  6267 ;;Total ram usage:        1 bytes
  6268 ;; Hardware stack levels used: 1
  6269 ;; This function calls:
  6270 ;;		Nothing
  6271 ;; This function is called by:
  6272 ;;		_InterruptManagerHigh
  6273 ;; This function uses a non-reentrant model
  6274 ;;
  6275                           
  6276                           	psect	text31
  6277  00301C                     __ptext31:
  6278                           	callstack 0
  6279  00301C                     _RB7_ISR:
  6280                           	callstack 24
  6281                           
  6282                           ;incstack = 0
  6283                           ;RB7_ISR@RB7_Source stored from wreg
  6284  00301C  6E01               	movwf	RB7_ISR@RB7_Source^0,c
  6285  00301E                     
  6286                           ;MCAL/Interrupt/mcal_external_interrupt.c: 171:     (INTCONbits.RBIF = 0);
  6287  00301E  90F2               	bcf	242,0,c	;volatile
  6288  003020                     
  6289                           ;MCAL/Interrupt/mcal_external_interrupt.c: 175:     if(0 == RB7_Source){
  6290  003020  5001               	movf	RB7_ISR@RB7_Source^0,w,c
  6291  003022  A4D8               	btfss	status,2,c
  6292  003024  EF16  F018         	goto	i2u521_41
  6293  003028  EF18  F018         	goto	i2u521_40
  6294  00302C                     i2u521_41:
  6295  00302C  EF1A  F018         	goto	i2l6271
  6296  003030                     i2u521_40:
  6297  003030  EF1A  F018         	goto	i2l965
  6298  003034                     i2l6271:
  6299  003034                     i2l965:
  6300  003034  0012               	return		;funcret
  6301  003036                     __end_of_RB7_ISR:
  6302                           	callstack 0
  6303                           
  6304 ;; *************** function _RB6_ISR *****************
  6305 ;; Defined at:
  6306 ;;		line 147 in file "MCAL/Interrupt/mcal_external_interrupt.c"
  6307 ;; Parameters:    Size  Location     Type
  6308 ;;  RB6_Source      1    wreg     unsigned char 
  6309 ;; Auto vars:     Size  Location     Type
  6310 ;;  RB6_Source      1    0[COMRAM] unsigned char 
  6311 ;; Return value:  Size  Location     Type
  6312 ;;                  1    wreg      void 
  6313 ;; Registers used:
  6314 ;;		wreg, status,2, status,0
  6315 ;; Tracked objects:
  6316 ;;		On entry : 0/0
  6317 ;;		On exit  : 0/0
  6318 ;;		Unchanged: 0/0
  6319 ;; Data sizes:     COMRAM   BANK0   BANK1   BANK2   BANK3   BANK4   BANK5   BANK6   BANK7   BANK8   BANK9  BANK10  BANK1
      +1  BANK12  BANK13  BANK14  BANK15
  6320 ;;      Params:         0       0       0       0       0       0       0       0       0       0       0       0       
      +0       0       0       0       0
  6321 ;;      Locals:         1       0       0       0       0       0       0       0       0       0       0       0       
      +0       0       0       0       0
  6322 ;;      Temps:          0       0       0       0       0       0       0       0       0       0       0       0       
      +0       0       0       0       0
  6323 ;;      Totals:         1       0       0       0       0       0       0       0       0       0       0       0       
      +0       0       0       0       0
  6324 ;;Total ram usage:        1 bytes
  6325 ;; Hardware stack levels used: 1
  6326 ;; This function calls:
  6327 ;;		Nothing
  6328 ;; This function is called by:
  6329 ;;		_InterruptManagerHigh
  6330 ;; This function uses a non-reentrant model
  6331 ;;
  6332                           
  6333                           	psect	text32
  6334  003036                     __ptext32:
  6335                           	callstack 0
  6336  003036                     _RB6_ISR:
  6337                           	callstack 24
  6338                           
  6339                           ;incstack = 0
  6340                           ;RB6_ISR@RB6_Source stored from wreg
  6341  003036  6E01               	movwf	RB6_ISR@RB6_Source^0,c
  6342  003038                     
  6343                           ;MCAL/Interrupt/mcal_external_interrupt.c: 149:     (INTCONbits.RBIF = 0);
  6344  003038  90F2               	bcf	242,0,c	;volatile
  6345  00303A                     
  6346                           ;MCAL/Interrupt/mcal_external_interrupt.c: 153:     if(0 == RB6_Source){
  6347  00303A  5001               	movf	RB6_ISR@RB6_Source^0,w,c
  6348  00303C  A4D8               	btfss	status,2,c
  6349  00303E  EF23  F018         	goto	i2u520_41
  6350  003042  EF25  F018         	goto	i2u520_40
  6351  003046                     i2u520_41:
  6352  003046  EF27  F018         	goto	i2l6257
  6353  00304A                     i2u520_40:
  6354  00304A  EF27  F018         	goto	i2l954
  6355  00304E                     i2l6257:
  6356  00304E                     i2l954:
  6357  00304E  0012               	return		;funcret
  6358  003050                     __end_of_RB6_ISR:
  6359                           	callstack 0
  6360                           
  6361 ;; *************** function _RB5_ISR *****************
  6362 ;; Defined at:
  6363 ;;		line 125 in file "MCAL/Interrupt/mcal_external_interrupt.c"
  6364 ;; Parameters:    Size  Location     Type
  6365 ;;  RB5_Source      1    wreg     unsigned char 
  6366 ;; Auto vars:     Size  Location     Type
  6367 ;;  RB5_Source      1    0[COMRAM] unsigned char 
  6368 ;; Return value:  Size  Location     Type
  6369 ;;                  1    wreg      void 
  6370 ;; Registers used:
  6371 ;;		wreg, status,2, status,0
  6372 ;; Tracked objects:
  6373 ;;		On entry : 0/0
  6374 ;;		On exit  : 0/0
  6375 ;;		Unchanged: 0/0
  6376 ;; Data sizes:     COMRAM   BANK0   BANK1   BANK2   BANK3   BANK4   BANK5   BANK6   BANK7   BANK8   BANK9  BANK10  BANK1
      +1  BANK12  BANK13  BANK14  BANK15
  6377 ;;      Params:         0       0       0       0       0       0       0       0       0       0       0       0       
      +0       0       0       0       0
  6378 ;;      Locals:         1       0       0       0       0       0       0       0       0       0       0       0       
      +0       0       0       0       0
  6379 ;;      Temps:          0       0       0       0       0       0       0       0       0       0       0       0       
      +0       0       0       0       0
  6380 ;;      Totals:         1       0       0       0       0       0       0       0       0       0       0       0       
      +0       0       0       0       0
  6381 ;;Total ram usage:        1 bytes
  6382 ;; Hardware stack levels used: 1
  6383 ;; This function calls:
  6384 ;;		Nothing
  6385 ;; This function is called by:
  6386 ;;		_InterruptManagerHigh
  6387 ;; This function uses a non-reentrant model
  6388 ;;
  6389                           
  6390                           	psect	text33
  6391  003050                     __ptext33:
  6392                           	callstack 0
  6393  003050                     _RB5_ISR:
  6394                           	callstack 24
  6395                           
  6396                           ;incstack = 0
  6397                           ;RB5_ISR@RB5_Source stored from wreg
  6398  003050  6E01               	movwf	RB5_ISR@RB5_Source^0,c
  6399  003052                     
  6400                           ;MCAL/Interrupt/mcal_external_interrupt.c: 127:     (INTCONbits.RBIF = 0);
  6401  003052  90F2               	bcf	242,0,c	;volatile
  6402  003054                     
  6403                           ;MCAL/Interrupt/mcal_external_interrupt.c: 131:     if(0 == RB5_Source){
  6404  003054  5001               	movf	RB5_ISR@RB5_Source^0,w,c
  6405  003056  A4D8               	btfss	status,2,c
  6406  003058  EF30  F018         	goto	i2u519_41
  6407  00305C  EF32  F018         	goto	i2u519_40
  6408  003060                     i2u519_41:
  6409  003060  EF34  F018         	goto	i2l6243
  6410  003064                     i2u519_40:
  6411  003064  EF34  F018         	goto	i2l943
  6412  003068                     i2l6243:
  6413  003068                     i2l943:
  6414  003068  0012               	return		;funcret
  6415  00306A                     __end_of_RB5_ISR:
  6416                           	callstack 0
  6417                           
  6418 ;; *************** function _RB4_ISR *****************
  6419 ;; Defined at:
  6420 ;;		line 103 in file "MCAL/Interrupt/mcal_external_interrupt.c"
  6421 ;; Parameters:    Size  Location     Type
  6422 ;;  RB4_Source      1    wreg     unsigned char 
  6423 ;; Auto vars:     Size  Location     Type
  6424 ;;  RB4_Source      1    0[COMRAM] unsigned char 
  6425 ;; Return value:  Size  Location     Type
  6426 ;;                  1    wreg      void 
  6427 ;; Registers used:
  6428 ;;		wreg, status,2, status,0
  6429 ;; Tracked objects:
  6430 ;;		On entry : 0/0
  6431 ;;		On exit  : 0/0
  6432 ;;		Unchanged: 0/0
  6433 ;; Data sizes:     COMRAM   BANK0   BANK1   BANK2   BANK3   BANK4   BANK5   BANK6   BANK7   BANK8   BANK9  BANK10  BANK1
      +1  BANK12  BANK13  BANK14  BANK15
  6434 ;;      Params:         0       0       0       0       0       0       0       0       0       0       0       0       
      +0       0       0       0       0
  6435 ;;      Locals:         1       0       0       0       0       0       0       0       0       0       0       0       
      +0       0       0       0       0
  6436 ;;      Temps:          0       0       0       0       0       0       0       0       0       0       0       0       
      +0       0       0       0       0
  6437 ;;      Totals:         1       0       0       0       0       0       0       0       0       0       0       0       
      +0       0       0       0       0
  6438 ;;Total ram usage:        1 bytes
  6439 ;; Hardware stack levels used: 1
  6440 ;; This function calls:
  6441 ;;		Nothing
  6442 ;; This function is called by:
  6443 ;;		_InterruptManagerHigh
  6444 ;; This function uses a non-reentrant model
  6445 ;;
  6446                           
  6447                           	psect	text34
  6448  00306A                     __ptext34:
  6449                           	callstack 0
  6450  00306A                     _RB4_ISR:
  6451                           	callstack 24
  6452                           
  6453                           ;incstack = 0
  6454                           ;RB4_ISR@RB4_Source stored from wreg
  6455  00306A  6E01               	movwf	RB4_ISR@RB4_Source^0,c
  6456  00306C                     
  6457                           ;MCAL/Interrupt/mcal_external_interrupt.c: 105:     (INTCONbits.RBIF = 0);
  6458  00306C  90F2               	bcf	242,0,c	;volatile
  6459  00306E                     
  6460                           ;MCAL/Interrupt/mcal_external_interrupt.c: 109:     if(0 == RB4_Source){
  6461  00306E  5001               	movf	RB4_ISR@RB4_Source^0,w,c
  6462  003070  A4D8               	btfss	status,2,c
  6463  003072  EF3D  F018         	goto	i2u518_41
  6464  003076  EF3F  F018         	goto	i2u518_40
  6465  00307A                     i2u518_41:
  6466  00307A  EF41  F018         	goto	i2l6229
  6467  00307E                     i2u518_40:
  6468  00307E  EF41  F018         	goto	i2l932
  6469  003082                     i2l6229:
  6470  003082                     i2l932:
  6471  003082  0012               	return		;funcret
  6472  003084                     __end_of_RB4_ISR:
  6473                           	callstack 0
  6474                           
  6475 ;; *************** function _MSSP_I2C_ISR *****************
  6476 ;; Defined at:
  6477 ;;		line 229 in file "MCAL/I2C/hal_i2c.c"
  6478 ;; Parameters:    Size  Location     Type
  6479 ;;		None
  6480 ;; Auto vars:     Size  Location     Type
  6481 ;;		None
  6482 ;; Return value:  Size  Location     Type
  6483 ;;                  1    wreg      void 
  6484 ;; Registers used:
  6485 ;;		None
  6486 ;; Tracked objects:
  6487 ;;		On entry : 0/0
  6488 ;;		On exit  : 0/0
  6489 ;;		Unchanged: 0/0
  6490 ;; Data sizes:     COMRAM   BANK0   BANK1   BANK2   BANK3   BANK4   BANK5   BANK6   BANK7   BANK8   BANK9  BANK10  BANK1
      +1  BANK12  BANK13  BANK14  BANK15
  6491 ;;      Params:         0       0       0       0       0       0       0       0       0       0       0       0       
      +0       0       0       0       0
  6492 ;;      Locals:         0       0       0       0       0       0       0       0       0       0       0       0       
      +0       0       0       0       0
  6493 ;;      Temps:          0       0       0       0       0       0       0       0       0       0       0       0       
      +0       0       0       0       0
  6494 ;;      Totals:         0       0       0       0       0       0       0       0       0       0       0       0       
      +0       0       0       0       0
  6495 ;;Total ram usage:        0 bytes
  6496 ;; Hardware stack levels used: 1
  6497 ;; This function calls:
  6498 ;;		Nothing
  6499 ;; This function is called by:
  6500 ;;		_InterruptManagerHigh
  6501 ;; This function uses a non-reentrant model
  6502 ;;
  6503                           
  6504                           	psect	text35
  6505  0030B6                     __ptext35:
  6506                           	callstack 0
  6507  0030B6                     _MSSP_I2C_ISR:
  6508                           	callstack 24
  6509  0030B6                     
  6510                           ;MCAL/I2C/hal_i2c.c: 231:     (PIR1bits.SSPIF = 0);
  6511  0030B6  969E               	bcf	158,3,c	;volatile
  6512  0030B8  0012               	return		;funcret
  6513  0030BA                     __end_of_MSSP_I2C_ISR:
  6514                           	callstack 0
  6515                           
  6516 ;; *************** function _MSSP_I2C_BC_ISR *****************
  6517 ;; Defined at:
  6518 ;;		line 238 in file "MCAL/I2C/hal_i2c.c"
  6519 ;; Parameters:    Size  Location     Type
  6520 ;;		None
  6521 ;; Auto vars:     Size  Location     Type
  6522 ;;		None
  6523 ;; Return value:  Size  Location     Type
  6524 ;;                  1    wreg      void 
  6525 ;; Registers used:
  6526 ;;		None
  6527 ;; Tracked objects:
  6528 ;;		On entry : 0/0
  6529 ;;		On exit  : 0/0
  6530 ;;		Unchanged: 0/0
  6531 ;; Data sizes:     COMRAM   BANK0   BANK1   BANK2   BANK3   BANK4   BANK5   BANK6   BANK7   BANK8   BANK9  BANK10  BANK1
      +1  BANK12  BANK13  BANK14  BANK15
  6532 ;;      Params:         0       0       0       0       0       0       0       0       0       0       0       0       
      +0       0       0       0       0
  6533 ;;      Locals:         0       0       0       0       0       0       0       0       0       0       0       0       
      +0       0       0       0       0
  6534 ;;      Temps:          0       0       0       0       0       0       0       0       0       0       0       0       
      +0       0       0       0       0
  6535 ;;      Totals:         0       0       0       0       0       0       0       0       0       0       0       0       
      +0       0       0       0       0
  6536 ;;Total ram usage:        0 bytes
  6537 ;; Hardware stack levels used: 1
  6538 ;; This function calls:
  6539 ;;		Nothing
  6540 ;; This function is called by:
  6541 ;;		_InterruptManagerHigh
  6542 ;; This function uses a non-reentrant model
  6543 ;;
  6544                           
  6545                           	psect	text36
  6546  0030BA                     __ptext36:
  6547                           	callstack 0
  6548  0030BA                     _MSSP_I2C_BC_ISR:
  6549                           	callstack 24
  6550  0030BA                     
  6551                           ;MCAL/I2C/hal_i2c.c: 240:     (PIR2bits.BCLIF = 0);
  6552  0030BA  96A1               	bcf	161,3,c	;volatile
  6553  0030BC  0012               	return		;funcret
  6554  0030BE                     __end_of_MSSP_I2C_BC_ISR:
  6555                           	callstack 0
  6556                           
  6557 ;; *************** function _INT2_ISR *****************
  6558 ;; Defined at:
  6559 ;;		line 90 in file "MCAL/Interrupt/mcal_external_interrupt.c"
  6560 ;; Parameters:    Size  Location     Type
  6561 ;;		None
  6562 ;; Auto vars:     Size  Location     Type
  6563 ;;		None
  6564 ;; Return value:  Size  Location     Type
  6565 ;;                  1    wreg      void 
  6566 ;; Registers used:
  6567 ;;		None
  6568 ;; Tracked objects:
  6569 ;;		On entry : 0/0
  6570 ;;		On exit  : 0/0
  6571 ;;		Unchanged: 0/0
  6572 ;; Data sizes:     COMRAM   BANK0   BANK1   BANK2   BANK3   BANK4   BANK5   BANK6   BANK7   BANK8   BANK9  BANK10  BANK1
      +1  BANK12  BANK13  BANK14  BANK15
  6573 ;;      Params:         0       0       0       0       0       0       0       0       0       0       0       0       
      +0       0       0       0       0
  6574 ;;      Locals:         0       0       0       0       0       0       0       0       0       0       0       0       
      +0       0       0       0       0
  6575 ;;      Temps:          0       0       0       0       0       0       0       0       0       0       0       0       
      +0       0       0       0       0
  6576 ;;      Totals:         0       0       0       0       0       0       0       0       0       0       0       0       
      +0       0       0       0       0
  6577 ;;Total ram usage:        0 bytes
  6578 ;; Hardware stack levels used: 1
  6579 ;; This function calls:
  6580 ;;		Nothing
  6581 ;; This function is called by:
  6582 ;;		_InterruptManagerHigh
  6583 ;; This function uses a non-reentrant model
  6584 ;;
  6585                           
  6586                           	psect	text37
  6587  0030BE                     __ptext37:
  6588                           	callstack 0
  6589  0030BE                     _INT2_ISR:
  6590                           	callstack 24
  6591  0030BE                     
  6592                           ;MCAL/Interrupt/mcal_external_interrupt.c: 92:     (INTCON3bits.INT2IF = 0);
  6593  0030BE  92F0               	bcf	240,1,c	;volatile
  6594  0030C0  0012               	return		;funcret
  6595  0030C2                     __end_of_INT2_ISR:
  6596                           	callstack 0
  6597                           
  6598 ;; *************** function _INT1_ISR *****************
  6599 ;; Defined at:
  6600 ;;		line 81 in file "MCAL/Interrupt/mcal_external_interrupt.c"
  6601 ;; Parameters:    Size  Location     Type
  6602 ;;		None
  6603 ;; Auto vars:     Size  Location     Type
  6604 ;;		None
  6605 ;; Return value:  Size  Location     Type
  6606 ;;                  1    wreg      void 
  6607 ;; Registers used:
  6608 ;;		None
  6609 ;; Tracked objects:
  6610 ;;		On entry : 0/0
  6611 ;;		On exit  : 0/0
  6612 ;;		Unchanged: 0/0
  6613 ;; Data sizes:     COMRAM   BANK0   BANK1   BANK2   BANK3   BANK4   BANK5   BANK6   BANK7   BANK8   BANK9  BANK10  BANK1
      +1  BANK12  BANK13  BANK14  BANK15
  6614 ;;      Params:         0       0       0       0       0       0       0       0       0       0       0       0       
      +0       0       0       0       0
  6615 ;;      Locals:         0       0       0       0       0       0       0       0       0       0       0       0       
      +0       0       0       0       0
  6616 ;;      Temps:          0       0       0       0       0       0       0       0       0       0       0       0       
      +0       0       0       0       0
  6617 ;;      Totals:         0       0       0       0       0       0       0       0       0       0       0       0       
      +0       0       0       0       0
  6618 ;;Total ram usage:        0 bytes
  6619 ;; Hardware stack levels used: 1
  6620 ;; This function calls:
  6621 ;;		Nothing
  6622 ;; This function is called by:
  6623 ;;		_InterruptManagerHigh
  6624 ;; This function uses a non-reentrant model
  6625 ;;
  6626                           
  6627                           	psect	text38
  6628  0030C2                     __ptext38:
  6629                           	callstack 0
  6630  0030C2                     _INT1_ISR:
  6631                           	callstack 24
  6632  0030C2                     
  6633                           ;MCAL/Interrupt/mcal_external_interrupt.c: 83:     (INTCON3bits.INT1IF = 0);
  6634  0030C2  90F0               	bcf	240,0,c	;volatile
  6635  0030C4  0012               	return		;funcret
  6636  0030C6                     __end_of_INT1_ISR:
  6637                           	callstack 0
  6638                           
  6639 ;; *************** function _INT0_ISR *****************
  6640 ;; Defined at:
  6641 ;;		line 72 in file "MCAL/Interrupt/mcal_external_interrupt.c"
  6642 ;; Parameters:    Size  Location     Type
  6643 ;;		None
  6644 ;; Auto vars:     Size  Location     Type
  6645 ;;		None
  6646 ;; Return value:  Size  Location     Type
  6647 ;;                  1    wreg      void 
  6648 ;; Registers used:
  6649 ;;		None
  6650 ;; Tracked objects:
  6651 ;;		On entry : 0/0
  6652 ;;		On exit  : 0/0
  6653 ;;		Unchanged: 0/0
  6654 ;; Data sizes:     COMRAM   BANK0   BANK1   BANK2   BANK3   BANK4   BANK5   BANK6   BANK7   BANK8   BANK9  BANK10  BANK1
      +1  BANK12  BANK13  BANK14  BANK15
  6655 ;;      Params:         0       0       0       0       0       0       0       0       0       0       0       0       
      +0       0       0       0       0
  6656 ;;      Locals:         0       0       0       0       0       0       0       0       0       0       0       0       
      +0       0       0       0       0
  6657 ;;      Temps:          0       0       0       0       0       0       0       0       0       0       0       0       
      +0       0       0       0       0
  6658 ;;      Totals:         0       0       0       0       0       0       0       0       0       0       0       0       
      +0       0       0       0       0
  6659 ;;Total ram usage:        0 bytes
  6660 ;; Hardware stack levels used: 1
  6661 ;; This function calls:
  6662 ;;		Nothing
  6663 ;; This function is called by:
  6664 ;;		_InterruptManagerHigh
  6665 ;; This function uses a non-reentrant model
  6666 ;;
  6667                           
  6668                           	psect	text39
  6669  0030C6                     __ptext39:
  6670                           	callstack 0
  6671  0030C6                     _INT0_ISR:
  6672                           	callstack 24
  6673  0030C6                     
  6674                           ;MCAL/Interrupt/mcal_external_interrupt.c: 74:     (INTCONbits.INT0IF = 0);
  6675  0030C6  92F2               	bcf	242,1,c	;volatile
  6676  0030C8  0012               	return		;funcret
  6677  0030CA                     __end_of_INT0_ISR:
  6678                           	callstack 0
  6679                           
  6680 ;; *************** function _EUSART_TX_ISR *****************
  6681 ;; Defined at:
  6682 ;;		line 309 in file "MCAL/usart/hal_usart.c"
  6683 ;; Parameters:    Size  Location     Type
  6684 ;;		None
  6685 ;; Auto vars:     Size  Location     Type
  6686 ;;		None
  6687 ;; Return value:  Size  Location     Type
  6688 ;;                  1    wreg      void 
  6689 ;; Registers used:
  6690 ;;		None
  6691 ;; Tracked objects:
  6692 ;;		On entry : 0/0
  6693 ;;		On exit  : 0/0
  6694 ;;		Unchanged: 0/0
  6695 ;; Data sizes:     COMRAM   BANK0   BANK1   BANK2   BANK3   BANK4   BANK5   BANK6   BANK7   BANK8   BANK9  BANK10  BANK1
      +1  BANK12  BANK13  BANK14  BANK15
  6696 ;;      Params:         0       0       0       0       0       0       0       0       0       0       0       0       
      +0       0       0       0       0
  6697 ;;      Locals:         0       0       0       0       0       0       0       0       0       0       0       0       
      +0       0       0       0       0
  6698 ;;      Temps:          0       0       0       0       0       0       0       0       0       0       0       0       
      +0       0       0       0       0
  6699 ;;      Totals:         0       0       0       0       0       0       0       0       0       0       0       0       
      +0       0       0       0       0
  6700 ;;Total ram usage:        0 bytes
  6701 ;; Hardware stack levels used: 1
  6702 ;; This function calls:
  6703 ;;		Nothing
  6704 ;; This function is called by:
  6705 ;;		_InterruptManagerHigh
  6706 ;; This function uses a non-reentrant model
  6707 ;;
  6708                           
  6709                           	psect	text40
  6710  0030CA                     __ptext40:
  6711                           	callstack 0
  6712  0030CA                     _EUSART_TX_ISR:
  6713                           	callstack 24
  6714  0030CA                     
  6715                           ;MCAL/usart/hal_usart.c: 310:     (PIE1bits.TXIE = 0);
  6716  0030CA  989D               	bcf	157,4,c	;volatile
  6717  0030CC  0012               	return		;funcret
  6718  0030CE                     __end_of_EUSART_TX_ISR:
  6719                           	callstack 0
  6720                           
  6721 ;; *************** function _EUSART_RX_ISR *****************
  6722 ;; Defined at:
  6723 ;;		line 316 in file "MCAL/usart/hal_usart.c"
  6724 ;; Parameters:    Size  Location     Type
  6725 ;;		None
  6726 ;; Auto vars:     Size  Location     Type
  6727 ;;		None
  6728 ;; Return value:  Size  Location     Type
  6729 ;;                  1    wreg      void 
  6730 ;; Registers used:
  6731 ;;		wreg, status,2, status,0
  6732 ;; Tracked objects:
  6733 ;;		On entry : 0/0
  6734 ;;		On exit  : 0/0
  6735 ;;		Unchanged: 0/0
  6736 ;; Data sizes:     COMRAM   BANK0   BANK1   BANK2   BANK3   BANK4   BANK5   BANK6   BANK7   BANK8   BANK9  BANK10  BANK1
      +1  BANK12  BANK13  BANK14  BANK15
  6737 ;;      Params:         0       0       0       0       0       0       0       0       0       0       0       0       
      +0       0       0       0       0
  6738 ;;      Locals:         0       0       0       0       0       0       0       0       0       0       0       0       
      +0       0       0       0       0
  6739 ;;      Temps:          0       0       0       0       0       0       0       0       0       0       0       0       
      +0       0       0       0       0
  6740 ;;      Totals:         0       0       0       0       0       0       0       0       0       0       0       0       
      +0       0       0       0       0
  6741 ;;Total ram usage:        0 bytes
  6742 ;; Hardware stack levels used: 1
  6743 ;; This function calls:
  6744 ;;		Nothing
  6745 ;; This function is called by:
  6746 ;;		_InterruptManagerHigh
  6747 ;; This function uses a non-reentrant model
  6748 ;;
  6749                           
  6750                           	psect	text41
  6751  0030DA                     __ptext41:
  6752                           	callstack 0
  6753  0030DA                     _EUSART_RX_ISR:
  6754                           	callstack 24
  6755  0030DA  0012               	return		;funcret
  6756  0030DC                     __end_of_EUSART_RX_ISR:
  6757                           	callstack 0
  6758                           
  6759 ;; *************** function _CCP2_ISR *****************
  6760 ;; Defined at:
  6761 ;;		line 252 in file "MCAL/CCP1/hal_ccp1.c"
  6762 ;; Parameters:    Size  Location     Type
  6763 ;;		None
  6764 ;; Auto vars:     Size  Location     Type
  6765 ;;		None
  6766 ;; Return value:  Size  Location     Type
  6767 ;;                  1    wreg      void 
  6768 ;; Registers used:
  6769 ;;		None
  6770 ;; Tracked objects:
  6771 ;;		On entry : 0/0
  6772 ;;		On exit  : 0/0
  6773 ;;		Unchanged: 0/0
  6774 ;; Data sizes:     COMRAM   BANK0   BANK1   BANK2   BANK3   BANK4   BANK5   BANK6   BANK7   BANK8   BANK9  BANK10  BANK1
      +1  BANK12  BANK13  BANK14  BANK15
  6775 ;;      Params:         0       0       0       0       0       0       0       0       0       0       0       0       
      +0       0       0       0       0
  6776 ;;      Locals:         0       0       0       0       0       0       0       0       0       0       0       0       
      +0       0       0       0       0
  6777 ;;      Temps:          0       0       0       0       0       0       0       0       0       0       0       0       
      +0       0       0       0       0
  6778 ;;      Totals:         0       0       0       0       0       0       0       0       0       0       0       0       
      +0       0       0       0       0
  6779 ;;Total ram usage:        0 bytes
  6780 ;; Hardware stack levels used: 1
  6781 ;; This function calls:
  6782 ;;		Nothing
  6783 ;; This function is called by:
  6784 ;;		_InterruptManagerHigh
  6785 ;; This function uses a non-reentrant model
  6786 ;;
  6787                           
  6788                           	psect	text42
  6789  0030CE                     __ptext42:
  6790                           	callstack 0
  6791  0030CE                     _CCP2_ISR:
  6792                           	callstack 24
  6793  0030CE                     
  6794                           ;MCAL/CCP1/hal_ccp1.c: 253:     (PIR2bits.CCP2IF = 0);
  6795  0030CE  90A1               	bcf	161,0,c	;volatile
  6796  0030D0  0012               	return		;funcret
  6797  0030D2                     __end_of_CCP2_ISR:
  6798                           	callstack 0
  6799                           
  6800 ;; *************** function _CCP1_ISR *****************
  6801 ;; Defined at:
  6802 ;;		line 245 in file "MCAL/CCP1/hal_ccp1.c"
  6803 ;; Parameters:    Size  Location     Type
  6804 ;;		None
  6805 ;; Auto vars:     Size  Location     Type
  6806 ;;		None
  6807 ;; Return value:  Size  Location     Type
  6808 ;;                  1    wreg      void 
  6809 ;; Registers used:
  6810 ;;		None
  6811 ;; Tracked objects:
  6812 ;;		On entry : 0/0
  6813 ;;		On exit  : 0/0
  6814 ;;		Unchanged: 0/0
  6815 ;; Data sizes:     COMRAM   BANK0   BANK1   BANK2   BANK3   BANK4   BANK5   BANK6   BANK7   BANK8   BANK9  BANK10  BANK1
      +1  BANK12  BANK13  BANK14  BANK15
  6816 ;;      Params:         0       0       0       0       0       0       0       0       0       0       0       0       
      +0       0       0       0       0
  6817 ;;      Locals:         0       0       0       0       0       0       0       0       0       0       0       0       
      +0       0       0       0       0
  6818 ;;      Temps:          0       0       0       0       0       0       0       0       0       0       0       0       
      +0       0       0       0       0
  6819 ;;      Totals:         0       0       0       0       0       0       0       0       0       0       0       0       
      +0       0       0       0       0
  6820 ;;Total ram usage:        0 bytes
  6821 ;; Hardware stack levels used: 1
  6822 ;; This function calls:
  6823 ;;		Nothing
  6824 ;; This function is called by:
  6825 ;;		_InterruptManagerHigh
  6826 ;; This function uses a non-reentrant model
  6827 ;;
  6828                           
  6829                           	psect	text43
  6830  0030D2                     __ptext43:
  6831                           	callstack 0
  6832  0030D2                     _CCP1_ISR:
  6833                           	callstack 24
  6834  0030D2                     
  6835                           ;MCAL/CCP1/hal_ccp1.c: 246:     (PIR1bits.CCP1IF = 0);
  6836  0030D2  949E               	bcf	158,2,c	;volatile
  6837  0030D4  0012               	return		;funcret
  6838  0030D6                     __end_of_CCP1_ISR:
  6839                           	callstack 0
  6840                           
  6841 ;; *************** function _ADC_ISR *****************
  6842 ;; Defined at:
  6843 ;;		line 295 in file "MCAL/ADC/hal_adc.c"
  6844 ;; Parameters:    Size  Location     Type
  6845 ;;		None
  6846 ;; Auto vars:     Size  Location     Type
  6847 ;;		None
  6848 ;; Return value:  Size  Location     Type
  6849 ;;                  1    wreg      void 
  6850 ;; Registers used:
  6851 ;;		None
  6852 ;; Tracked objects:
  6853 ;;		On entry : 0/0
  6854 ;;		On exit  : 0/0
  6855 ;;		Unchanged: 0/0
  6856 ;; Data sizes:     COMRAM   BANK0   BANK1   BANK2   BANK3   BANK4   BANK5   BANK6   BANK7   BANK8   BANK9  BANK10  BANK1
      +1  BANK12  BANK13  BANK14  BANK15
  6857 ;;      Params:         0       0       0       0       0       0       0       0       0       0       0       0       
      +0       0       0       0       0
  6858 ;;      Locals:         0       0       0       0       0       0       0       0       0       0       0       0       
      +0       0       0       0       0
  6859 ;;      Temps:          0       0       0       0       0       0       0       0       0       0       0       0       
      +0       0       0       0       0
  6860 ;;      Totals:         0       0       0       0       0       0       0       0       0       0       0       0       
      +0       0       0       0       0
  6861 ;;Total ram usage:        0 bytes
  6862 ;; Hardware stack levels used: 1
  6863 ;; This function calls:
  6864 ;;		Nothing
  6865 ;; This function is called by:
  6866 ;;		_InterruptManagerHigh
  6867 ;; This function uses a non-reentrant model
  6868 ;;
  6869                           
  6870                           	psect	text44
  6871  0030D6                     __ptext44:
  6872                           	callstack 0
  6873  0030D6                     _ADC_ISR:
  6874                           	callstack 24
  6875  0030D6                     
  6876                           ;MCAL/ADC/hal_adc.c: 296:     (PIR1bits.ADIF = 0);
  6877  0030D6  9C9E               	bcf	158,6,c	;volatile
  6878  0030D8  0012               	return		;funcret
  6879  0030DA                     __end_of_ADC_ISR:
  6880                           	callstack 0
  6881                           
  6882                           	psect	rparam
  6883  0000                     
  6884                           	psect	temp
  6885  00006D                     btemp:
  6886                           	callstack 0
  6887  00006D                     	ds	1
  6888  0000                     int$flags	set	btemp
  6889  0000                     wtemp8	set	btemp+1
  6890  0000                     ttemp5	set	btemp+1
  6891  0000                     ttemp6	set	btemp+4
  6892  0000                     ttemp7	set	btemp+8
  6893                           
  6894                           	psect	config
  6895                           
  6896                           ; Padding undefined space
  6897  300000                     	org	3145728
  6898  300000  FF                 	db	255
  6899                           
  6900                           ;Config register CONFIG1H @ 0x300001
  6901                           ;	Oscillator Selection bits
  6902                           ;	OSC = HS, HS oscillator
  6903                           ;	Fail-Safe Clock Monitor Enable bit
  6904                           ;	FCMEN = OFF, Fail-Safe Clock Monitor disabled
  6905                           ;	Internal/External Oscillator Switchover bit
  6906                           ;	IESO = OFF, Oscillator Switchover mode disabled
  6907  300001                     	org	3145729
  6908  300001  02                 	db	2
  6909                           
  6910                           ;Config register CONFIG2L @ 0x300002
  6911                           ;	Power-up Timer Enable bit
  6912                           ;	PWRT = OFF, PWRT disabled
  6913                           ;	Brown-out Reset Enable bits
  6914                           ;	BOREN = OFF, Brown-out Reset disabled in hardware and software
  6915                           ;	Brown Out Reset Voltage bits
  6916                           ;	BORV = 1, 
  6917  300002                     	org	3145730
  6918  300002  09                 	db	9
  6919                           
  6920                           ;Config register CONFIG2H @ 0x300003
  6921                           ;	Watchdog Timer Enable bit
  6922                           ;	WDT = OFF, WDT disabled (control is placed on the SWDTEN bit)
  6923                           ;	Watchdog Timer Postscale Select bits
  6924                           ;	WDTPS = 32768, 1:32768
  6925  300003                     	org	3145731
  6926  300003  1E                 	db	30
  6927                           
  6928                           ; Padding undefined space
  6929  300004                     	org	3145732
  6930  300004  FF                 	db	255
  6931                           
  6932                           ;Config register CONFIG3H @ 0x300005
  6933                           ;	CCP2 MUX bit
  6934                           ;	CCP2MX = PORTC, CCP2 input/output is multiplexed with RC1
  6935                           ;	PORTB A/D Enable bit
  6936                           ;	PBADEN = OFF, PORTB<4:0> pins are configured as digital I/O on Reset
  6937                           ;	Low-Power Timer1 Oscillator Enable bit
  6938                           ;	LPT1OSC = OFF, Timer1 configured for higher power operation
  6939                           ;	MCLR Pin Enable bit
  6940                           ;	MCLRE = ON, MCLR pin enabled; RE3 input pin disabled
  6941  300005                     	org	3145733
  6942  300005  81                 	db	129
  6943                           
  6944                           ;Config register CONFIG4L @ 0x300006
  6945                           ;	Stack Full/Underflow Reset Enable bit
  6946                           ;	STVREN = ON, Stack full/underflow will cause Reset
  6947                           ;	Single-Supply ICSP Enable bit
  6948                           ;	LVP = OFF, Single-Supply ICSP disabled
  6949                           ;	Extended Instruction Set Enable bit
  6950                           ;	XINST = OFF, Instruction set extension and Indexed Addressing mode disabled (Legacy mo
      +                          de)
  6951                           ;	Background Debugger Enable bit
  6952                           ;	DEBUG = 0x1, unprogrammed default
  6953  300006                     	org	3145734
  6954  300006  81                 	db	129
  6955                           
  6956                           ; Padding undefined space
  6957  300007                     	org	3145735
  6958  300007  FF                 	db	255
  6959                           
  6960                           ;Config register CONFIG5L @ 0x300008
  6961                           ;	Code Protection bit
  6962                           ;	CP0 = OFF, Block 0 (000800-003FFFh) not code-protected
  6963                           ;	Code Protection bit
  6964                           ;	CP1 = OFF, Block 1 (004000-007FFFh) not code-protected
  6965                           ;	Code Protection bit
  6966                           ;	CP2 = OFF, Block 2 (008000-00BFFFh) not code-protected
  6967                           ;	Code Protection bit
  6968                           ;	CP3 = OFF, Block 3 (00C000-00FFFFh) not code-protected
  6969  300008                     	org	3145736
  6970  300008  0F                 	db	15
  6971                           
  6972                           ;Config register CONFIG5H @ 0x300009
  6973                           ;	Boot Block Code Protection bit
  6974                           ;	CPB = OFF, Boot block (000000-0007FFh) not code-protected
  6975                           ;	Data EEPROM Code Protection bit
  6976                           ;	CPD = OFF, Data EEPROM not code-protected
  6977  300009                     	org	3145737
  6978  300009  C0                 	db	192
  6979                           
  6980                           ;Config register CONFIG6L @ 0x30000A
  6981                           ;	Write Protection bit
  6982                           ;	WRT0 = OFF, Block 0 (000800-003FFFh) not write-protected
  6983                           ;	Write Protection bit
  6984                           ;	WRT1 = OFF, Block 1 (004000-007FFFh) not write-protected
  6985                           ;	Write Protection bit
  6986                           ;	WRT2 = OFF, Block 2 (008000-00BFFFh) not write-protected
  6987                           ;	Write Protection bit
  6988                           ;	WRT3 = OFF, Block 3 (00C000-00FFFFh) not write-protected
  6989  30000A                     	org	3145738
  6990  30000A  0F                 	db	15
  6991                           
  6992                           ;Config register CONFIG6H @ 0x30000B
  6993                           ;	Configuration Register Write Protection bit
  6994                           ;	WRTC = OFF, Configuration registers (300000-3000FFh) not write-protected
  6995                           ;	Boot Block Write Protection bit
  6996                           ;	WRTB = OFF, Boot Block (000000-0007FFh) not write-protected
  6997                           ;	Data EEPROM Write Protection bit
  6998                           ;	WRTD = OFF, Data EEPROM not write-protected
  6999  30000B                     	org	3145739
  7000  30000B  E0                 	db	224
  7001                           
  7002                           ;Config register CONFIG7L @ 0x30000C
  7003                           ;	Table Read Protection bit
  7004                           ;	EBTR0 = OFF, Block 0 (000800-003FFFh) not protected from table reads executed in other
      +                           blocks
  7005                           ;	Table Read Protection bit
  7006                           ;	EBTR1 = OFF, Block 1 (004000-007FFFh) not protected from table reads executed in other
      +                           blocks
  7007                           ;	Table Read Protection bit
  7008                           ;	EBTR2 = OFF, Block 2 (008000-00BFFFh) not protected from table reads executed in other
      +                           blocks
  7009                           ;	Table Read Protection bit
  7010                           ;	EBTR3 = OFF, Block 3 (00C000-00FFFFh) not protected from table reads executed in other
      +                           blocks
  7011  30000C                     	org	3145740
  7012  30000C  0F                 	db	15
  7013                           
  7014                           ;Config register CONFIG7H @ 0x30000D
  7015                           ;	Boot Block Table Read Protection bit
  7016                           ;	EBTRB = OFF, Boot Block (000000-0007FFh) not protected from table reads executed in ot
      +                          her blocks
  7017  30000D                     	org	3145741
  7018  30000D  40                 	db	64
  7019                           tosu	equ	0xFFF
  7020                           tosh	equ	0xFFE
  7021                           tosl	equ	0xFFD
  7022                           stkptr	equ	0xFFC
  7023                           pclatu	equ	0xFFB
  7024                           pclath	equ	0xFFA
  7025                           pcl	equ	0xFF9
  7026                           tblptru	equ	0xFF8
  7027                           tblptrh	equ	0xFF7
  7028                           tblptrl	equ	0xFF6
  7029                           tablat	equ	0xFF5
  7030                           prodh	equ	0xFF4
  7031                           prodl	equ	0xFF3
  7032                           indf0	equ	0xFEF
  7033                           postinc0	equ	0xFEE
  7034                           postdec0	equ	0xFED
  7035                           preinc0	equ	0xFEC
  7036                           plusw0	equ	0xFEB
  7037                           fsr0h	equ	0xFEA
  7038                           fsr0l	equ	0xFE9
  7039                           wreg	equ	0xFE8
  7040                           indf1	equ	0xFE7
  7041                           postinc1	equ	0xFE6
  7042                           postdec1	equ	0xFE5
  7043                           preinc1	equ	0xFE4
  7044                           plusw1	equ	0xFE3
  7045                           fsr1h	equ	0xFE2
  7046                           fsr1l	equ	0xFE1
  7047                           bsr	equ	0xFE0
  7048                           indf2	equ	0xFDF
  7049                           postinc2	equ	0xFDE
  7050                           postdec2	equ	0xFDD
  7051                           preinc2	equ	0xFDC
  7052                           plusw2	equ	0xFDB
  7053                           fsr2h	equ	0xFDA
  7054                           fsr2l	equ	0xFD9
  7055                           status	equ	0xFD8

Data Sizes:
    Strings     28
    Constant    16
    Data        42
    BSS         84
    Persistent  1
    Stack       0

Auto Spaces:
    Space          Size  Autos    Used
    COMRAM          126     71     108
    BANK0           128     18     108
    BANK1           256      0       0
    BANK2           256      0       0
    BANK3           256      0       0
    BANK4           256      0       0
    BANK5           256      0       0
    BANK6           256      0       0
    BANK7           256      0       0
    BANK8           256      0       0
    BANK9           256      0       0
    BANK10          256      0       0
    BANK11          256      0       0
    BANK12          256      0       0
    BANK13          256      0       0
    BANK14          256      0       0
    BANK15          128      0       0

Pointer List with Targets:

    vfprintf$2	PTR PTR void  size(2) Largest target is 2
		 -> sprintf@ap(COMRAM[2]), 

    vfprintf$1	PTR const unsigned char  size(2) Largest target is 3
		 -> STR_3(CODE[3]), STR_2(CODE[3]), STR_1(CODE[3]), 

    vfprintf$0	PTR struct _IO_FILE size(2) Largest target is 11
		 -> sprintf@f(COMRAM[11]), 

    S4590$source	PTR const unsigned char  size(2) Largest target is 0

    f...source	PTR const unsigned char  size(2) Largest target is 0

    S4590$buffer	PTR unsigned char  size(2) Largest target is 0

    f...buffer	PTR unsigned char  size(2) Largest target is 0

    StringToUint8@str	PTR const unsigned char  size(2) Largest target is 7
		 -> lm35_res_2_txt(BANK0[7]), 

    usart_obj.EUSART_OverrunErrorHandler	PTR FTN()void  size(2) Largest target is 0
		 -> NULL(NULL[0]), 

    usart_obj.EUSART_FramingErrorHandler	PTR FTN()void  size(2) Largest target is 0
		 -> NULL(NULL[0]), 

    usart_obj.EUSART_RxDefaultInterruptHandler	PTR FTN()void  size(2) Largest target is 0
		 -> NULL(NULL[0]), 

    usart_obj.EUSART_TxDefaultInterruptHandler	PTR FTN()void  size(2) Largest target is 0
		 -> NULL(NULL[0]), 

    EUSART_OverrunErrorHandler	PTR FTN()void  size(2) Largest target is 1
		 -> Absolute function(), NULL(NULL[0]), 

    EUSART_FramingErrorHandler	PTR FTN()void  size(2) Largest target is 1
		 -> Absolute function(), NULL(NULL[0]), 

    EUSART_RxInterruptHandler	PTR FTN()void  size(2) Largest target is 1
		 -> Absolute function(), NULL(NULL[0]), 

    EUSART_ASYNC_RX_Init@_eusart.EUSART_OverrunErrorHandler	PTR FTN()void  size(2) Largest target is 0
		 -> NULL(NULL[0]), 

    EUSART_ASYNC_RX_Init@_eusart.EUSART_FramingErrorHandler	PTR FTN()void  size(2) Largest target is 0
		 -> NULL(NULL[0]), 

    EUSART_ASYNC_RX_Init@_eusart.EUSART_RxDefaultInterruptHandler	PTR FTN()void  size(2) Largest target is 0
		 -> NULL(NULL[0]), 

    EUSART_ASYNC_RX_Init@_eusart.EUSART_TxDefaultInterruptHandler	PTR FTN()void  size(2) Largest target is 0
		 -> NULL(NULL[0]), 

    EUSART_ASYNC_RX_Init@_eusart	PTR const struct . size(2) Largest target is 18
		 -> usart_module_init@usart_obj(BANK0[18]), 

    EUSART_TxInterruptHandler	PTR FTN()void  size(2) Largest target is 1
		 -> Absolute function(), NULL(NULL[0]), 

    EUSART_ASYNC_TX_Init@_eusart.EUSART_OverrunErrorHandler	PTR FTN()void  size(2) Largest target is 0
		 -> NULL(NULL[0]), 

    EUSART_ASYNC_TX_Init@_eusart.EUSART_FramingErrorHandler	PTR FTN()void  size(2) Largest target is 0
		 -> NULL(NULL[0]), 

    EUSART_ASYNC_TX_Init@_eusart.EUSART_RxDefaultInterruptHandler	PTR FTN()void  size(2) Largest target is 0
		 -> NULL(NULL[0]), 

    EUSART_ASYNC_TX_Init@_eusart.EUSART_TxDefaultInterruptHandler	PTR FTN()void  size(2) Largest target is 0
		 -> NULL(NULL[0]), 

    EUSART_ASYNC_TX_Init@_eusart	PTR const struct . size(2) Largest target is 18
		 -> usart_module_init@usart_obj(BANK0[18]), 

    S3560$EUSART_OverrunErrorHandler	PTR FTN()void  size(2) Largest target is 0
		 -> NULL(NULL[0]), 

    EUSART_Baud_Rate_Calculation@_eusart.EUSART_OverrunErrorHandler	PTR FTN()void  size(2) Largest target is 0
		 -> NULL(NULL[0]), 

    S3560$EUSART_FramingErrorHandler	PTR FTN()void  size(2) Largest target is 0
		 -> NULL(NULL[0]), 

    EUSART_Baud_Rate_Calculation@_eusart.EUSART_FramingErrorHandler	PTR FTN()void  size(2) Largest target is 0
		 -> NULL(NULL[0]), 

    S3560$EUSART_RxDefaultInterruptHandler	PTR FTN()void  size(2) Largest target is 0
		 -> NULL(NULL[0]), 

    EUSART_Baud_Rate_Calculation@_eusart.EUSART_RxDefaultInterruptHandler	PTR FTN()void  size(2) Largest target is 0
		 -> NULL(NULL[0]), 

    S3560$EUSART_TxDefaultInterruptHandler	PTR FTN()void  size(2) Largest target is 0
		 -> NULL(NULL[0]), 

    EUSART_Baud_Rate_Calculation@_eusart.EUSART_TxDefaultInterruptHandler	PTR FTN()void  size(2) Largest target is 0
		 -> NULL(NULL[0]), 

    EUSART_Baud_Rate_Calculation@_eusart	PTR const struct . size(2) Largest target is 18
		 -> usart_module_init@usart_obj(BANK0[18]), 

    EUSART_ASYNC_ReadStringBlocking@_data	PTR unsigned char  size(2) Largest target is 7
		 -> lm35_res_2_txt(BANK0[7]), 

    EUSART_ASYNC_Init@_eusart	PTR const struct . size(2) Largest target is 18
		 -> usart_module_init@usart_obj(BANK0[18]), 

    Timer3_Mode_Select@_timer.TMR3_InterruptHandler	PTR FTN()void  size(2) Largest target is 0

    TMR3_InterruptHandler	PTR FTN()void  size(2) Largest target is 1
		 -> Absolute function(), 

    S3364$TMR3_InterruptHandler	PTR FTN()void  size(2) Largest target is 0

    Timer3_Init@_timer.TMR3_InterruptHandler	PTR FTN()void  size(2) Largest target is 0

    TMR2_InterruptHandler	PTR FTN()void  size(2) Largest target is 1
		 -> Absolute function(), 

    S3233$TMR2_InterruptHandler	PTR FTN()void  size(2) Largest target is 0

    Timer2_Init@_timer.TMR2_InterruptHandler	PTR FTN()void  size(2) Largest target is 0

    Timer1_Mode_Select@_timer.TMR1_InterruptHandler	PTR FTN()void  size(2) Largest target is 0

    TMR1_InterruptHandler	PTR FTN()void  size(2) Largest target is 1
		 -> Absolute function(), 

    S3042$TMR1_InterruptHandler	PTR FTN()void  size(2) Largest target is 0

    Timer1_Init@_timer.TMR1_InterruptHandler	PTR FTN()void  size(2) Largest target is 0

    Timer0_Register_Size_Config@_timer.TMR0_InterruptHandler	PTR FTN()void  size(2) Largest target is 0

    Timer0_Mode_Select@_timer.TMR0_InterruptHandler	PTR FTN()void  size(2) Largest target is 0

    Timer0_Prescaler_Config@_timer.TMR0_InterruptHandler	PTR FTN()void  size(2) Largest target is 0

    TMR0_InterruptHandler	PTR FTN()void  size(2) Largest target is 1
		 -> Absolute function(), 

    S2877$TMR0_InterruptHandler	PTR FTN()void  size(2) Largest target is 0

    Timer0_Init@_timer.TMR0_InterruptHandler	PTR FTN()void  size(2) Largest target is 0

    Interrupt_INTx_SetInterruptHandler@int_obj.EXT_InterruptHandler	PTR FTN()void  size(2) Largest target is 0

    Interrupt_INTx_Clear_Flag@int_obj.EXT_InterruptHandler	PTR FTN()void  size(2) Largest target is 0

    Interrupt_INTx_Pin_Init@int_obj.EXT_InterruptHandler	PTR FTN()void  size(2) Largest target is 0

    Interrupt_INTx_Edge_Init@int_obj.EXT_InterruptHandler	PTR FTN()void  size(2) Largest target is 0

    Interrupt_INTx_Disable@int_obj.EXT_InterruptHandler	PTR FTN()void  size(2) Largest target is 0

    S2273$EXT_InterruptHandler	PTR FTN()void  size(2) Largest target is 0

    Interrupt_INTx_Enable@int_obj.EXT_InterruptHandler	PTR FTN()void  size(2) Largest target is 0

    S2389$EXT_InterruptHandler_LOW	PTR FTN()void  size(2) Largest target is 0

    Interrupt_RBx_Init@int_obj.EXT_InterruptHandler_LOW	PTR FTN()void  size(2) Largest target is 0

    S2389$EXT_InterruptHandler_HIGH	PTR FTN()void  size(2) Largest target is 0

    Interrupt_RBx_Init@int_obj.EXT_InterruptHandler_HIGH	PTR FTN()void  size(2) Largest target is 0

    RB7_InterruptHandler_LOW	PTR FTN()void  size(2) Largest target is 1
		 -> Absolute function(), 

    RB7_InterruptHandler_HIGH	PTR FTN()void  size(2) Largest target is 1
		 -> Absolute function(), 

    RB6_InterruptHandler_LOW	PTR FTN()void  size(2) Largest target is 1
		 -> Absolute function(), 

    RB6_InterruptHandler_HIGH	PTR FTN()void  size(2) Largest target is 1
		 -> Absolute function(), 

    RB5_InterruptHandler_LOW	PTR FTN()void  size(2) Largest target is 1
		 -> Absolute function(), 

    RB5_InterruptHandler_HIGH	PTR FTN()void  size(2) Largest target is 1
		 -> Absolute function(), 

    RB4_InterruptHandler_LOW	PTR FTN()void  size(2) Largest target is 1
		 -> Absolute function(), 

    RB4_InterruptHandler_HIGH	PTR FTN()void  size(2) Largest target is 1
		 -> Absolute function(), 

    INT2_InterruptHandler	PTR FTN()void  size(2) Largest target is 1
		 -> Absolute function(), 

    INT1_InterruptHandler	PTR FTN()void  size(2) Largest target is 1
		 -> Absolute function(), 

    INT0_InterruptHandler	PTR FTN()void  size(2) Largest target is 1
		 -> Absolute function(), 

    I2C_Report_Receive_Overflow_InterruptHandle	PTR FTN()void  size(2) Largest target is 1
		 -> Absolute function(), 

    MSSP_I2C_Interrupt_Configurations@i2c_obj.I2C_Report_Receive_Overflow	PTR FTN()void  size(2) Largest target is 0

    MSSP_I2C_Interrupt_Configurations@i2c_obj.I2C_DefaultInterruptHandler	PTR FTN()void  size(2) Largest target is 0

    MSSP_I2C_Interrupt_Configurations@i2c_obj.I2C_Report_Write_Collision	PTR FTN()void  size(2) Largest target is 0

    I2C_Slave_Mode_Configurations@i2c_obj.I2C_Report_Receive_Overflow	PTR FTN()void  size(2) Largest target is 0

    I2C_Slave_Mode_Configurations@i2c_obj.I2C_DefaultInterruptHandler	PTR FTN()void  size(2) Largest target is 0

    I2C_Slave_Mode_Configurations@i2c_obj.I2C_Report_Write_Collision	PTR FTN()void  size(2) Largest target is 0

    I2C_Master_Mode_Clock_Configurations@i2c_obj.I2C_Report_Receive_Overflow	PTR FTN()void  size(2) Largest target is 0

    I2C_Master_Mode_Clock_Configurations@i2c_obj.I2C_DefaultInterruptHandler	PTR FTN()void  size(2) Largest target is 0

    I2C_Master_Mode_Clock_Configurations@i2c_obj.I2C_Report_Write_Collision	PTR FTN()void  size(2) Largest target is 0

    I2C_Report_Write_Collision_InterruptHandler	PTR FTN()void  size(2) Largest target is 1
		 -> Absolute function(), 

    I2C_DefaultInterruptHandle	PTR FTN()void  size(2) Largest target is 1
		 -> Absolute function(), 

    S1762$I2C_Report_Receive_Overflow	PTR FTN()void  size(2) Largest target is 0

    MSSP_I2C_Init@i2c_obj.I2C_Report_Receive_Overflow	PTR FTN()void  size(2) Largest target is 0

    S1762$I2C_DefaultInterruptHandler	PTR FTN()void  size(2) Largest target is 0

    MSSP_I2C_Init@i2c_obj.I2C_DefaultInterruptHandler	PTR FTN()void  size(2) Largest target is 0

    S1762$I2C_Report_Write_Collision	PTR FTN()void  size(2) Largest target is 0

    MSSP_I2C_Init@i2c_obj.I2C_Report_Write_Collision	PTR FTN()void  size(2) Largest target is 0

    gpio_pin_initialize@_pin_config	PTR const struct . size(2) Largest target is 6
		 -> motor_1.dc_motor_pin(COMRAM[2]), motor_1(COMRAM[2]), lcd_1.lcd_data(BANK0[4]), lcd_1(BANK0[6]), 
		 -> relay_initialize@pin_obj(COMRAM[1]), led_initialize@pin_obj(COMRAM[1]), 

    gpio_pin_write_logic@_pin_config	PTR const struct . size(2) Largest target is 6
		 -> motor_1.dc_motor_pin(COMRAM[2]), motor_1(COMRAM[2]), lcd_1.lcd_data(BANK0[4]), lcd_1(BANK0[6]), 
		 -> relay_turn_off@pin_obj(COMRAM[1]), relay_turn_on@pin_obj(COMRAM[1]), relay_initialize@pin_obj(COMRAM[1]), led_turn_off@pin_obj(COMRAM[1]), 
		 -> led_turn_on@pin_obj(COMRAM[1]), led_initialize@pin_obj(COMRAM[1]), 

    gpio_pin_direction_initialize@_pin_config	PTR const struct . size(2) Largest target is 6
		 -> motor_1.dc_motor_pin(COMRAM[2]), motor_1(COMRAM[2]), lcd_1.lcd_data(BANK0[4]), lcd_1(BANK0[6]), 
		 -> relay_initialize@pin_obj(COMRAM[1]), led_initialize@pin_obj(COMRAM[1]), 

    port_registers	PTR volatile unsigned char [5] size(2) Largest target is 1
		 -> PORTE(BITBIGSFRlllll[1]), PORTD(BITBIGSFRlllll[1]), PORTC(BITBIGSFRlllll[1]), PORTB(BITBIGSFRlllll[1]), 
		 -> PORTA(BITBIGSFRlllll[1]), 

    lat_registers	PTR volatile unsigned char [5] size(2) Largest target is 1
		 -> LATE(BITBIGSFRllllh[1]), LATD(BITBIGSFRllllh[1]), LATC(BITBIGSFRllllh[1]), LATB(BITBIGSFRllllh[1]), 
		 -> LATA(BITBIGSFRlllll[1]), 

    tris_registers	PTR volatile unsigned char [5] size(2) Largest target is 1
		 -> TRISD(ABS[1]), TRISC(ABS[1]), TRISB(ABS[1]), TRISE(ABS[1]), 
		 -> TRISA(BITBIGSFRlllll[1]), 

    CCP_Compare_Mode_Config@_ccp_obj.CCP2_InterruptHandler	PTR FTN()void  size(2) Largest target is 0

    CCP_Compare_Mode_Config@_ccp_obj.CCP1_InterruptHandler	PTR FTN()void  size(2) Largest target is 0

    CCP_Capture_Mode_Config@_ccp_obj.CCP2_InterruptHandler	PTR FTN()void  size(2) Largest target is 0

    CCP_Capture_Mode_Config@_ccp_obj.CCP1_InterruptHandler	PTR FTN()void  size(2) Largest target is 0

    CCP_Mode_Timer_Select@_ccp_obj.CCP2_InterruptHandler	PTR FTN()void  size(2) Largest target is 0

    CCP_Mode_Timer_Select@_ccp_obj.CCP1_InterruptHandler	PTR FTN()void  size(2) Largest target is 0

    CCP_Interrupt_Config@_ccp_obj.CCP2_InterruptHandler	PTR FTN()void  size(2) Largest target is 0

    CCP_Interrupt_Config@_ccp_obj.CCP1_InterruptHandler	PTR FTN()void  size(2) Largest target is 0

    CCP2_InterruptHandler	PTR FTN()void  size(2) Largest target is 1
		 -> Absolute function(), 

    CCP1_InterruptHandler	PTR FTN()void  size(2) Largest target is 1
		 -> Absolute function(), 

    CCP1_Compare_Mode_Set_Value@_ccp_obj.CCP2_InterruptHandler	PTR FTN()void  size(2) Largest target is 0

    CCP1_Compare_Mode_Set_Value@_ccp_obj.CCP1_InterruptHandler	PTR FTN()void  size(2) Largest target is 0

    CCP_DeInit@_ccp_obj.CCP2_InterruptHandler	PTR FTN()void  size(2) Largest target is 0

    CCP_DeInit@_ccp_obj.CCP1_InterruptHandler	PTR FTN()void  size(2) Largest target is 0

    S1084$CCP2_InterruptHandler	PTR FTN()void  size(2) Largest target is 0

    CCP_Init@_ccp_obj.CCP2_InterruptHandler	PTR FTN()void  size(2) Largest target is 0

    S1084$CCP1_InterruptHandler	PTR FTN()void  size(2) Largest target is 0

    CCP_Init@_ccp_obj.CCP1_InterruptHandler	PTR FTN()void  size(2) Largest target is 0

    configure_voltage_reference@_adc.ADC_InterruptHandler	PTR FTN()void  size(2) Largest target is 0

    select_result_format@_adc.ADC_InterruptHandler	PTR FTN()void  size(2) Largest target is 0

    ADC_GetConversionResult@_adc.ADC_InterruptHandler	PTR FTN()void  size(2) Largest target is 0

    ADC_InterruptHandler	PTR FTN()void  size(2) Largest target is 1
		 -> Absolute function(), 

    S664$ADC_InterruptHandler	PTR FTN()void  size(2) Largest target is 0

    ADC_Init@_adc.ADC_InterruptHandler	PTR FTN()void  size(2) Largest target is 0

    dc_motor_stop@_dc_motor	PTR const struct . size(2) Largest target is 2
		 -> motor_1(COMRAM[2]), 

    dc_motor_move_right@_dc_motor	PTR const struct . size(2) Largest target is 2
		 -> motor_1(COMRAM[2]), 

    dc_motor_initialize@_dc_motor	PTR const struct . size(2) Largest target is 2
		 -> motor_1(COMRAM[2]), 

    lcd_4bit_set_cursor@lcd	PTR const struct . size(2) Largest target is 6
		 -> lcd_1(BANK0[6]), 

    lcd_4bit_send_enable_signal@lcd	PTR const struct . size(2) Largest target is 6
		 -> lcd_1(BANK0[6]), 

    lcd_send_4bits@lcd	PTR const struct . size(2) Largest target is 6
		 -> lcd_1(BANK0[6]), 

    sp__memset	PTR void  size(2) Largest target is 0

    lcd_4bit_send_string_pos@str	PTR unsigned char  size(2) Largest target is 19
		 -> lm35_res_2_txt(BANK0[7]), STR_5(CODE[6]), STR_4(CODE[19]), 

    lcd_4bit_send_string_pos@lcd	PTR const struct . size(2) Largest target is 6
		 -> lcd_1(BANK0[6]), 

    lcd_4bit_send_char_data@lcd	PTR const struct . size(2) Largest target is 6
		 -> lcd_1(BANK0[6]), 

    lcd_4bit_send_command@lcd	PTR const struct . size(2) Largest target is 6
		 -> lcd_1(BANK0[6]), 

    lcd_4bit_initialize@lcd	PTR const struct . size(2) Largest target is 6
		 -> lcd_1(BANK0[6]), 


Critical Paths under _main in COMRAM

    _lcd_4bit_send_string_pos->_lcd_4bit_set_cursor
    _lcd_4bit_set_cursor->_lcd_4bit_send_command
    _lcd_4bit_send_char_data->_lcd_send_4bits
    _dc_motor_stop->_gpio_pin_write_logic
    _dc_motor_move_right->_gpio_pin_write_logic
    _usart_module_init->_EUSART_ASYNC_Init
    _EUSART_ASYNC_Init->_EUSART_Baud_Rate_Calculation
    _EUSART_Baud_Rate_Calculation->___fladd
    ___fldiv->___xxtofl
    ___fladd->___fldiv
    _lcd_4bit_initialize->_lcd_4bit_send_command
    _lcd_4bit_send_command->_lcd_send_4bits
    _lcd_send_4bits->_gpio_pin_write_logic
    _lcd_4bit_send_enable_signal->_gpio_pin_write_logic
    _dc_motor_initialize->_gpio_pin_initialize
    _gpio_pin_initialize->_gpio_pin_write_logic

Critical Paths under _InterruptManagerHigh in COMRAM

    _InterruptManagerHigh->_RB4_ISR
    _InterruptManagerHigh->_RB5_ISR
    _InterruptManagerHigh->_RB6_ISR
    _InterruptManagerHigh->_RB7_ISR

Critical Paths under _main in BANK0

    _app_initialize->_usart_module_init

Critical Paths under _InterruptManagerHigh in BANK0

    None.

Critical Paths under _main in BANK1

    None.

Critical Paths under _InterruptManagerHigh in BANK1

    None.

Critical Paths under _main in BANK2

    None.

Critical Paths under _InterruptManagerHigh in BANK2

    None.

Critical Paths under _main in BANK3

    None.

Critical Paths under _InterruptManagerHigh in BANK3

    None.

Critical Paths under _main in BANK4

    None.

Critical Paths under _InterruptManagerHigh in BANK4

    None.

Critical Paths under _main in BANK5

    None.

Critical Paths under _InterruptManagerHigh in BANK5

    None.

Critical Paths under _main in BANK6

    None.

Critical Paths under _InterruptManagerHigh in BANK6

    None.

Critical Paths under _main in BANK7

    None.

Critical Paths under _InterruptManagerHigh in BANK7

    None.

Critical Paths under _main in BANK8

    None.

Critical Paths under _InterruptManagerHigh in BANK8

    None.

Critical Paths under _main in BANK9

    None.

Critical Paths under _InterruptManagerHigh in BANK9

    None.

Critical Paths under _main in BANK10

    None.

Critical Paths under _InterruptManagerHigh in BANK10

    None.

Critical Paths under _main in BANK11

    None.

Critical Paths under _InterruptManagerHigh in BANK11

    None.

Critical Paths under _main in BANK12

    None.

Critical Paths under _InterruptManagerHigh in BANK12

    None.

Critical Paths under _main in BANK13

    None.

Critical Paths under _InterruptManagerHigh in BANK13

    None.

Critical Paths under _main in BANK14

    None.

Critical Paths under _InterruptManagerHigh in BANK14

    None.

Critical Paths under _main in BANK15

    None.

Critical Paths under _InterruptManagerHigh in BANK15

    None.

Call Graph Tables:

 ---------------------------------------------------------------------------------
 (Depth) Function   	        Calls       Base Space   Used Autos Params    Refs
 ---------------------------------------------------------------------------------
 (0) _main                                                 1     1      0   91325
    _EUSART_ASYNC_ReadStringBlocking
                      _StringToUint8
                     _app_initialize
                _dc_motor_move_right
                      _dc_motor_stop
           _lcd_4bit_send_string_pos
 ---------------------------------------------------------------------------------
 (1) _lcd_4bit_send_string_pos                             7     1      6   36939
                                             26 COMRAM     7     1      6
            _lcd_4bit_send_char_data
                _lcd_4bit_set_cursor
 ---------------------------------------------------------------------------------
 (2) _lcd_4bit_set_cursor                                  7     3      4   19024
                                             19 COMRAM     7     3      4
              _lcd_4bit_send_command
 ---------------------------------------------------------------------------------
 (2) _lcd_4bit_send_char_data                              4     1      3   16822
                                             15 COMRAM     4     1      3
               _gpio_pin_write_logic
        _lcd_4bit_send_enable_signal
                     _lcd_send_4bits
 ---------------------------------------------------------------------------------
 (1) _dc_motor_stop                                        3     1      2    5057
                                             11 COMRAM     3     1      2
               _gpio_pin_write_logic
 ---------------------------------------------------------------------------------
 (1) _dc_motor_move_right                                  3     1      2    5057
                                             11 COMRAM     3     1      2
               _gpio_pin_write_logic
 ---------------------------------------------------------------------------------
 (1) _app_initialize                                       1     1      0   43617
                _dc_motor_initialize
                _lcd_4bit_initialize
                  _usart_module_init
 ---------------------------------------------------------------------------------
 (2) _usart_module_init                                   19    19      0   11052
                                              0 BANK0     18    18      0
                  _EUSART_ASYNC_Init
 ---------------------------------------------------------------------------------
 (3) _EUSART_ASYNC_Init                                    3     1      2   10560
                                             68 COMRAM     3     1      2
               _EUSART_ASYNC_RX_Init
               _EUSART_ASYNC_TX_Init
       _EUSART_Baud_Rate_Calculation
 ---------------------------------------------------------------------------------
 (4) _EUSART_Baud_Rate_Calculation                        12    10      2    9692
                                             56 COMRAM    12    10      2
                            ___fladd
                            ___fldiv
                            ___fltol
                           ___xxtofl
 ---------------------------------------------------------------------------------
 (5) ___xxtofl                                            14    10      4     926
                                              1 COMRAM    14    10      4
 ---------------------------------------------------------------------------------
 (5) ___fltol                                             10     6      4     607
                                              1 COMRAM    10     6      4
 ---------------------------------------------------------------------------------
 (5) ___fldiv                                             25    17      8    3443
                                             15 COMRAM    25    17      8
                           ___xxtofl (ARG)
 ---------------------------------------------------------------------------------
 (5) ___fladd                                             16     8      8    4122
                                             40 COMRAM    16     8      8
                            ___fldiv (ARG)
                           ___xxtofl (ARG)
 ---------------------------------------------------------------------------------
 (4) _EUSART_ASYNC_TX_Init                                 2     0      2     276
                                              1 COMRAM     2     0      2
 ---------------------------------------------------------------------------------
 (4) _EUSART_ASYNC_RX_Init                                 2     0      2     338
                                              1 COMRAM     2     0      2
 ---------------------------------------------------------------------------------
 (2) _lcd_4bit_initialize                                  6     4      2   25588
                                             19 COMRAM     6     4      2
                _gpio_pin_initialize
              _lcd_4bit_send_command
 ---------------------------------------------------------------------------------
 (3) _lcd_4bit_send_command                                4     1      3   18342
                                             15 COMRAM     4     1      3
               _gpio_pin_write_logic
        _lcd_4bit_send_enable_signal
                     _lcd_send_4bits
 ---------------------------------------------------------------------------------
 (4) _lcd_send_4bits                                       4     1      3    5702
                                             11 COMRAM     4     1      3
               _gpio_pin_write_logic
 ---------------------------------------------------------------------------------
 (4) _lcd_4bit_send_enable_signal                          3     1      2    5264
                                             11 COMRAM     3     1      2
               _gpio_pin_write_logic
 ---------------------------------------------------------------------------------
 (2) _dc_motor_initialize                                  3     1      2    6968
                                             15 COMRAM     3     1      2
                _gpio_pin_initialize
 ---------------------------------------------------------------------------------
 (3) _gpio_pin_initialize                                  4     2      2    6802
                                             11 COMRAM     4     2      2
      _gpio_pin_direction_initialize
               _gpio_pin_write_logic
 ---------------------------------------------------------------------------------
 (5) _gpio_pin_write_logic                                10     7      3    4891
                                              1 COMRAM    10     7      3
 ---------------------------------------------------------------------------------
 (4) _gpio_pin_direction_initialize                        9     7      2     483
                                              1 COMRAM     9     7      2
 ---------------------------------------------------------------------------------
 (1) _StringToUint8                                        5     3      2     236
                                              1 COMRAM     5     3      2
 ---------------------------------------------------------------------------------
 (1) _EUSART_ASYNC_ReadStringBlocking                     10     6      4     398
                                              1 COMRAM    10     6      4
 ---------------------------------------------------------------------------------
 Estimated maximum stack depth 5
 ---------------------------------------------------------------------------------
 (Depth) Function   	        Calls       Base Space   Used Autos Params    Refs
 ---------------------------------------------------------------------------------
 (6) _InterruptManagerHigh                                 0     0      0     176
                            _ADC_ISR
                           _CCP1_ISR
                           _CCP2_ISR
                      _EUSART_RX_ISR
                      _EUSART_TX_ISR
                           _INT0_ISR
                           _INT1_ISR
                           _INT2_ISR
                    _MSSP_I2C_BC_ISR
                       _MSSP_I2C_ISR
                            _RB4_ISR
                            _RB5_ISR
                            _RB6_ISR
                            _RB7_ISR
                           _TMR0_ISR
                           _TMR1_ISR
                           _TMR2_ISR
                           _TMR3_ISR
 ---------------------------------------------------------------------------------
 (7) _TMR3_ISR                                             0     0      0       0
 ---------------------------------------------------------------------------------
 (7) _TMR2_ISR                                             0     0      0       0
 ---------------------------------------------------------------------------------
 (7) _TMR1_ISR                                             0     0      0       0
 ---------------------------------------------------------------------------------
 (7) _TMR0_ISR                                             0     0      0       0
 ---------------------------------------------------------------------------------
 (7) _RB7_ISR                                              1     1      0      44
                                              0 COMRAM     1     1      0
 ---------------------------------------------------------------------------------
 (7) _RB6_ISR                                              1     1      0      44
                                              0 COMRAM     1     1      0
 ---------------------------------------------------------------------------------
 (7) _RB5_ISR                                              1     1      0      44
                                              0 COMRAM     1     1      0
 ---------------------------------------------------------------------------------
 (7) _RB4_ISR                                              1     1      0      44
                                              0 COMRAM     1     1      0
 ---------------------------------------------------------------------------------
 (7) _MSSP_I2C_ISR                                         0     0      0       0
 ---------------------------------------------------------------------------------
 (7) _MSSP_I2C_BC_ISR                                      0     0      0       0
 ---------------------------------------------------------------------------------
 (7) _INT2_ISR                                             0     0      0       0
 ---------------------------------------------------------------------------------
 (7) _INT1_ISR                                             0     0      0       0
 ---------------------------------------------------------------------------------
 (7) _INT0_ISR                                             0     0      0       0
 ---------------------------------------------------------------------------------
 (7) _EUSART_TX_ISR                                        0     0      0       0
 ---------------------------------------------------------------------------------
 (7) _EUSART_RX_ISR                                        0     0      0       0
 ---------------------------------------------------------------------------------
 (7) _CCP2_ISR                                             0     0      0       0
 ---------------------------------------------------------------------------------
 (7) _CCP1_ISR                                             0     0      0       0
 ---------------------------------------------------------------------------------
 (7) _ADC_ISR                                              0     0      0       0
 ---------------------------------------------------------------------------------
 Estimated maximum stack depth 7
 ---------------------------------------------------------------------------------

 Call Graph Graphs:

 _main (ROOT)
   _EUSART_ASYNC_ReadStringBlocking
   _StringToUint8
   _app_initialize
     _dc_motor_initialize
       _gpio_pin_initialize
         _gpio_pin_direction_initialize
         _gpio_pin_write_logic
     _lcd_4bit_initialize
       _gpio_pin_initialize
       _lcd_4bit_send_command
         _gpio_pin_write_logic
         _lcd_4bit_send_enable_signal
           _gpio_pin_write_logic
         _lcd_send_4bits
           _gpio_pin_write_logic
     _usart_module_init
       _EUSART_ASYNC_Init
         _EUSART_ASYNC_RX_Init
         _EUSART_ASYNC_TX_Init
         _EUSART_Baud_Rate_Calculation
           ___fladd
             ___fldiv (ARG)
               ___xxtofl (ARG)
             ___xxtofl (ARG)
           ___fldiv
           ___fltol
           ___xxtofl
   _dc_motor_move_right
     _gpio_pin_write_logic
   _dc_motor_stop
     _gpio_pin_write_logic
   _lcd_4bit_send_string_pos
     _lcd_4bit_send_char_data
       _gpio_pin_write_logic
       _lcd_4bit_send_enable_signal
       _lcd_send_4bits
     _lcd_4bit_set_cursor
       _lcd_4bit_send_command

 _InterruptManagerHigh (ROOT)
   _ADC_ISR
   _CCP1_ISR
   _CCP2_ISR
   _EUSART_RX_ISR
   _EUSART_TX_ISR
   _INT0_ISR
   _INT1_ISR
   _INT2_ISR
   _MSSP_I2C_BC_ISR
   _MSSP_I2C_ISR
   _RB4_ISR
   _RB5_ISR
   _RB6_ISR
   _RB7_ISR
   _TMR0_ISR
   _TMR1_ISR
   _TMR2_ISR
   _TMR3_ISR

 Address spaces:
Name               Size   Autos  Total    Cost      Usage
BIGRAM             F7F      0       0      48        0.0%
EEDATA             400      0       0       0        0.0%
BITBANK14          100      0       0      32        0.0%
BANK14             100      0       0      33        0.0%
BITBANK13          100      0       0      30        0.0%
BANK13             100      0       0      31        0.0%
BITBANK12          100      0       0      28        0.0%
BANK12             100      0       0      29        0.0%
BITBANK11          100      0       0      26        0.0%
BANK11             100      0       0      27        0.0%
BITBANK10          100      0       0      24        0.0%
BANK10             100      0       0      25        0.0%
BITBANK9           100      0       0      22        0.0%
BANK9              100      0       0      23        0.0%
BITBANK8           100      0       0      20        0.0%
BANK8              100      0       0      21        0.0%
BITBANK7           100      0       0      18        0.0%
BANK7              100      0       0      19        0.0%
BITBANK6           100      0       0      16        0.0%
BANK6              100      0       0      17        0.0%
BITBANK5           100      0       0      14        0.0%
BANK5              100      0       0      15        0.0%
BITBANK4           100      0       0      12        0.0%
BANK4              100      0       0      13        0.0%
BITBANK3           100      0       0      10        0.0%
BANK3              100      0       0      11        0.0%
BITBANK2           100      0       0       8        0.0%
BANK2              100      0       0       9        0.0%
BITBANK1           100      0       0       6        0.0%
BANK1              100      0       0       7        0.0%
BITBANK15           80      0       0      34        0.0%
BANK15              80      0       0      35        0.0%
BITBANK0            80      0       0       4        0.0%
BANK0               80     12      6C       5       84.4%
BITCOMRAM           7E      0       0       0        0.0%
COMRAM              7E     47      6C       1       85.7%
BITBIGSFRhlhhhl     18      0       0      37        0.0%
BITBIGSFRhh          D      0       0      36        0.0%
BITBIGSFRlllhh       6      0       0      44        0.0%
BITBIGSFRhlhhhl      5      0       0      38        0.0%
BITBIGSFRllhllh      4      0       0      41        0.0%
BITBIGSFRllllh       4      0       0      45        0.0%
BITBIGSFRllhllh      4      0       0      42        0.0%
BITBIGSFRlllll       4      0       0      46        0.0%
BITBIGSFRllhllh      1      0       0      40        0.0%
BITBIGSFRhlhhhl      1      0       0      39        0.0%
BITBIGSFRllhlll      1      0       0      43        0.0%
BIGSFR               0      0       0     200        0.0%
BITSFR               0      0       0     200        0.0%
SFR                  0      0       0     200        0.0%
STACK                0      0       0       2        0.0%
NULL                 0      0       0       0        0.0%
ABS                  0      0      D8      47        0.0%
DATA                 0      0      D8       3        0.0%
CODE                 0      0       0       0        0.0%


Microchip Technology PIC18 Macro Assembler V2.36 build 20220127204148 
Symbol Table                                                                                   Thu Oct 19 16:58:34 2023

           EUSART_ASYNC_ReadStringBlocking@_data 0002                                     ___fldiv@aexp 0028  
                                   ___fldiv@bexp 0027                                     ___fldiv@sign 0020  
                                ?_lcd_send_4bits 000C                                      _SSPSTATbits 000FC7  
                                             l74 2D04                                               l69 2778  
                                             l79 2C92                                              l100 2BA4  
                                            l210 2FA2                                              l215 2F64  
                                            l225 2F1E                                              l171 2DD8  
                                            l174 2FD8                                              l197 2A60  
                                            l655 2442                                              l674 256E  
                                            l695 2D70                           ??_InterruptManagerHigh 0002  
                      _RB5_InterruptHandler_HIGH 009E                                  __end_of_ADC_ISR 30DA  
            __end_of_lcd_4bit_send_enable_signal 2FDA                      _lcd_4bit_send_enable_signal 2FA4  
                            led_initialize@F3045 0064                                              prod 000FF3  
                                            wreg 000FE8                            relay_initialize@F3039 0060  
                    lcd_send_4bits@_data_command 000E                                 ??_app_initialize 0048  
                                __end_of_RB4_ISR 3084                                  __end_of_RB5_ISR 306A  
                                __end_of_RB6_ISR 3050                                  __end_of_RB7_ISR 3036  
                                   ___fltol@exp1 000B                                             l2211 214A  
                                           l2213 1FAA                                             l2222 1FF0  
                                           l2224 2068                                             l2216 1F6E  
                                           l2225 2056                                             l1521 1042  
                                           l1602 2E8A                                             l1523 10F6  
                                           l1524 11AA                                             l2157 16FA  
                                           l1525 125E                                             l1470 2A72  
                                           l1542 2908                                             l2174 1814  
                                           l2166 19CA                                             l2158 16E8  
                                           l1526 1312                                             l1551 2854  
                                           l2183 18E4                                             l2159 16AE  
                                           l1527 13C4                                             l1447 2EA6  
                                           l2184 18D2                                             l1529 150A  
                                           l1449 2ED8                                             l1617 301A  
                                           l1626 2C20                                             l1538 2908  
                                           l1475 2B02                                             l1555 2854  
                                           l2291 223A                                             l1476 2B04  
                                           l2284 21A2                                             l2287 22FE  
                                           l6001 29BA                                             l2298 2296  
                                           l6011 2A0C                                             l6003 29BE  
                                           l6005 29C4                                             l6013 2A24  
                                           l1926 2674                                             l6007 29DC  
                                           l6015 2A5E                                             l6111 2B06  
                                           l6201 2F1C                                             l6009 29F4  
                                           l6121 2B70                                             l6113 2B18  
                                           l5331 2448                                             l6123 2BA2  
                                           l6115 2B20                                             l5333 245A  
                                           l6061 2F66                                             l6117 2B3A  
                                           l6109 2B06                                             l5343 2542  
                                           l5335 247C                                             l6063 2F6A  
                                           l6119 2B6C                                             l6401 2BCE  
                                           l5337 2484                                             l5345 256C  
                                           l5329 2444                                             l6065 2F7C  
                                           l8001 284E                                             l6403 2BE6  
                                           l5339 24E6                                             l6067 2F84  
                                           l8011 2ED0                                             l8003 2E8C  
                                           l6405 2BFE                                             l6069 2FA0  
                                           l8013 2ED2                                             l8005 2E8C  
                                           l8021 2E52                                             l6181 2F20  
                                           l8015 2ED6                                             l8007 2E9E  
                                           l8031 2E5C                                             l8023 2E54  
                                           l6183 2F24                                             l8111 292A  
                                           l6409 2C1A                                             l5801 2FC0  
                                           l8009 2EAC                                             l8041 2E7E  
                                           l8033 2E5E                                             l8025 2E56  
                                           l6185 2F36                                             l6193 2EDA  
                                           l8121 2996                                             l8113 2946  
                                           l8105 290A                                             l6371 2A94  
                                           l8211 242A                                             l5811 2316  
                                           l5803 2FD6                                             l8035 2E66  
                                           l8027 2E58                                             l8019 2E3C  
                                           l8043 2FFE                                             l6187 2F3E  
                                           l6195 2EDE                                             l8123 29A6  
                                           l8115 295A                                             l8107 290A  
                                           l6381 2AFE                                             l6365 2A62  
                                           l5821 23FE                                             l5813 2338  
                                           l7501 1518                                             l8037 2E6E  
                                           l8029 2E5A                                             l8045 2FFE  
                                           l6189 2F62                                             l6197 2EF0  
                                           l8205 2A38                                             l8117 2976  
                                           l8109 290E                                             l6367 2A80  
                                           l6375 2AC2                                             l5815 2340  
                                           l5823 2440                                             l5807 2300  
                                           l5911 2D3A                                             l7511 1558  
                                           l7503 1526                                             l8207 1496  
                                           l8039 2E76                                             l8047 300A  
                                           l6199 2EF8                                             l8119 2986  
                                           l6377 2AD8                                             l6369 2A90  
                                           l6393 2BA6                                             l5817 23A2  
                                           l5809 2304                                             l8209 2556  
                                           l5913 2D42                                             l5905 2D06  
                                           l5921 2C94                                             l7601 1718  
                                           l7521 158A                                             l7513 155A  
                                           l7505 1528                                             l8049 3016  
                                           l6379 2AE8                                             l6395 2BAE  
                                           l5915 2D6E                                             l5907 2D06  
                                           l5923 2CA6                                             l7611 1758  
                                           l7531 15B2                                             l7523 158C  
                                           l7507 1538                                             l7515 1562  
                                           l6397 2BC8                                             l5909 2D18  
                                           l5925 2CAE                                             l7621 1782  
                                           l7613 1764                                             l7605 172C  
                                           l7541 15EC                                             l7533 15C2  
                                           l7525 1592                                             l7517 1572  
                                           l7509 1548                                             l7701 1DB2  
                                           l6399 2BCA                                             l5791 2DBA  
                                           l5783 2D72                                             l5927 2D02  
                                           l5919 2C94                                             l5951 268C  
                                           l7631 17F4                                             l7615 1768  
                                           l7607 173C                                             l7623 1788  
                                           l7551 1618                                             l7543 15FE  
                                           l7535 15D2                                             l7527 15A0  
                                           l7519 1578                                             l7711 1DEE  
                                           l7703 1DBE                                             l5785 2D72  
                                           l5961 26B8                                             l5953 2694  
                                           l7641 184E                                             l7625 17AE  
                                           l7633 1804                                             l7617 1776  
                                           l7609 174A                                             l7561 162C  
                                           l7553 161C                                             l7545 160C  
                                           l7537 15D4                                             l7529 15A2  
                                           l7801 2020                                             l7721 1E1E  
                                           l7713 1DFE                                             l7705 1DCC  
                                           l5795 2FA4                                             l5787 2D88  
                                           l5971 2704                                             l5963 26D4  
                                           l5955 26B4                                             l5947 2676  
                                           l7651 187E                                             l7643 1858  
                                           l7635 182A                                             l7627 17E2  
                                           l7619 1778                                             l7571 1640  
                                           l7563 1630                                             l7555 1620  
                                           l7547 1610                                             l7539 15DC  
                                           l7811 2092                                             l7803 204E  
                                           l7731 1E54                                             l7723 1E24  
                                           l7715 1E00                                             l7707 1DCE  
                                           l5797 2FA4                                             l5789 2DA0  
                                           l5981 2754                                             l5973 2714  
                                           l5965 26D6                                             l5949 267A  
                                           l7661 18A6                                             l7653 1882  
                                           l7645 1866                                             l7637 183A  
                                           l7629 17E4                                             l7581 167A  
                                           l7573 1644                                             l7565 1634  
                                           l7557 1624                                             l7549 1614  
                                           l7821 210A                                             l7813 20BC  
                                           l7741 1E94                                             l7733 1E64  
                                           l7725 1E32                                             l7709 1DDE  
                                           l7717 1E08                                             l7901 2222  
                                           l5799 2FB8                                             l5983 2764  
                                           l5975 2724                                             l5967 26E6  
                                           l7671 1900                                             l7663 18B4  
                                           l7655 1892                                             l7647 1868  
                                           l7591 16CC                                             l7583 1696  
                                           l7575 1648                                             l7567 1638  
                                           l7559 1628                                             l7831 2140  
                                           l7823 2126                                             l7807 2078  
                                           l7815 20C0                                             l7743 1EA4  
                                           l7751 1EC4                                             l7735 1E66  
                                           l7727 1E34                                             l7719 1E18  
                                           l7911 2286                                             l7903 2224  
                                           l5991 2C22                                             l5977 2734  
                                           l5969 26F4                                             l5985 2776  
                                           l7681 196A                                             l7673 190E  
                                           l7665 18CA                                             l7649 1876  
                                           l7657 1894                                             l7593 16DA  
                                           l7585 16A6                                             l7569 163C  
                                           l7577 164C                                             l7825 212A  
                                           l7817 20DA                                             l7809 2084  
                                           l7761 1F02                                             l7753 1ED4  
                                           l7745 1EAC                                             l7729 1E44  
                                           l7737 1E6E                                             l7841 2586  
                                           l7921 22DE                                             l7913 22A4  
                                           l7905 2230                                             l5993 2C34  
                                           l5979 2744                                             l7691 19A4  
                                           l7683 198A                                             l7675 1948  
                                           l7659 18A2                                             l7595 16DC  
                                           l7587 16BC                                             l7579 1650  
                                           l7499 150C                                             l7827 2138  
                                           l7819 20F0                                             l7771 1F4A  
                                           l7763 1F12                                             l7755 1ED4  
                                           l7747 1EB0                                             l7739 1E7E  
                                           l7851 25D6                                             l7923 22EC  
                                           l7915 22A6                                             l7907 226C  
                                           l7931 1048                                             l5995 2C3C  
                                           l7693 19AA                                             l7685 198E  
                                           l7669 18F4                                             l7677 194A  
                                           l7597 16E6                                             l7589 16C8  
                                           l7829 213E                                             l7781 1F98  
                                           l7773 1F5E                                             l7765 1F22  
                                           l7861 2600                                             l7853 25DA  
                                           l7845 259A                                             l7925 22EE  
                                           l7917 22AA                                             l7909 2278  
                                           l7941 1202                                             l7933 109A  
                                           l5997 2C90                                             l5989 2C22  
                                           l7695 19B8                                             l7687 199C  
                                           l7679 195A                                             l7599 1708  
                                           l7791 1FE0                                             l7783 1FA8  
                                           l7775 1F6C                                             l7767 1F32  
                                           l7759 1EE8                                             l7871 2628  
                                           l7863 260A                                             l7855 25E8  
                                           l7847 25C4                                             l7839 2570  
                                           l7919 22CE                                             l7951 13C8  
                                           l7943 1264                                             l7935 10FC  
                                           l7697 19BA                                             l7689 19A2  
                                           l7793 1FEE                                             l7785 1FBA  
                                           l7777 1F78                                             l7769 1F3A  
                                           l7873 2634                                             l7865 2614  
                                           l7849 25C6                                             l7953 141A  
                                           l7945 12B6                                             l7937 114E  
                                           l7929 102E                                             l7971 28AC  
                                           l7963 2856                                             l7787 1FD0  
                                           l7795 2000                                             l7779 1F96  
                                           l7875 2644                                             l7891 21C8  
                                           l7883 214E                                             l7947 1316  
                                           l7939 11B0                                             l7955 1476  
                                           l7981 2902                                             l7973 28C6  
                                           l7965 2870                                             l7797 200E  
                                           l7789 1FD6                                             l7877 2654  
                                           l7885 215E                                             l7949 1368  
                                           l7957 14CC                                             l7991 27F8  
                                           l7983 277A                                             l7975 28C8  
                                           l7967 2872                                             l7799 2012  
                                           l7879 2664                                             l7895 21DC  
                                           l7887 216C                                             l7993 2812  
                                           l7985 2794                                             l7977 28E2  
                                           l7969 28A0                                             l7897 21E4  
                                           l7889 21B2                                             l7995 2814  
                                           l7987 2796                                             l7979 28E8  
                                           l7899 21F0                                             l7997 282E  
                                           l7989 27EC                                             l7999 2834  
                                           STR_1 102A                                             STR_4 1011  
                                           STR_5 1024                                             _LATA 000F89  
                                           _LATB 000F8A                                             _LATC 000F8B  
                                           _LATD 000F8C                                             _LATE 000F8D  
                                           u5000 2C34                                             u5001 2C30  
                                           u5040 2F7C                                             u5041 2F78  
                                           u5300 2BE6                                             u5060 2B18  
                                           u5301 2BE2                                             u5061 2B14  
                                           u5310 2BFE                                             u5070 2B64  
                                           u5311 2BFA                                             u7000 16BC  
                                           u5160 2F36                                             u5080 2B92  
                                           u7001 16B8                                             u5161 2F32  
                                           u5250 2A80                                             u7010 16DA  
                                           u5170 2EF0                                             u5090 2BA2  
                                           u5251 2A7C                                             u7011 16D6  
                                           u5171 2EEC                                             u5091 2B9E  
                                           u5260 2ABE                                             u7100 182A  
                                           u7020 16FA                                             u5261 2ABA  
                                           u7101 1826                                             u7021 16F6  
                                           u5077 2B5A                                             u5270 2AD8  
                                           u7110 183A                                             u7030 1708  
                                           u5271 2AD4                                             u7111 1836  
                                           u7031 1704                                             u5087 2B88  
                                           u5280 2AFE                                             u7200 190E  
                                           u7120 1866                                             u7040 1718  
                                           u5281 2AFA                                             u7201 190A  
                                           u7121 1862                                             u7041 1714  
                                           u5290 2BC8                                             u7210 1948  
                                           u7130 1876                                             u7050 174A  
                                           u5291 2BC4                                             u7211 1944  
                                           u7131 1872                                             u7051 1746  
                                           u4820 2416                                             u4804 2360  
                                           u7220 195A                                             u7140 1892  
                                           u7060 1758                                             u7300 1E32  
                                           u4821 2410                                             u4805 235C  
                                           u7221 1956                                             u7141 188E  
                                           u7061 1754                                             u7301 1E2E  
                                           u4830 2418                                             u4814 23C2  
                                           u3950 245A                                             u7230 196A  
                                           u7150 18A2                                             u7070 1776  
                                           u7310 1E44                                             u4815 23BE  
                                           u3951 2456                                             u7231 1966  
                                           u7151 189E                                             u7071 1772  
                                           u7311 1E40                                             u3960 247C  
                                           u7240 198A                                             u7160 18B4  
                                           u7080 17AE                                             u7400 1FEE  
                                           u7320 1E54                                             u3961 2478  
                                           u7241 1986                                             u7161 18B0  
                                           u7081 17AA                                             u7401 1FEA  
                                           u7321 1E50                                             u7250 199C  
                                           u7170 18CA                                             u7090 17F4  
                                           u7410 200E                                             u7330 1E94  
                                           u7251 1998                                             u7171 18C6  
                                           u7091 17F0                                             u7411 200A  
                                           u7331 1E90                                             u4780 2316  
                                           u4940 2D18                                             u7260 19B8  
                                           u7180 18E0                                             u7420 2020  
                                           u7340 1ED4                                             u7500 2586  
                                           u4781 2312                                             u4941 2D14  
                                           u7261 19B4                                             u7181 18DC  
                                           u7421 201C                                             u7341 1ED0  
                                           u7501 2582                                             u4790 2338  
                                           u3974 24A4                                             u4950 2D3A  
                                           u7190 18F4                                             u7430 204E  
                                           u7350 1F4A                                             u7270 1DCC  
                                           u7510 25BA                                             u4791 2334  
                                           u3975 24A0                                             u4951 2D36  
                                           u7191 18F0                                             u7431 204A  
                                           u7351 1F46                                             u7271 1DC8  
                                           u3984 2506                                             u4960 2CA6  
                                           u7440 2064                                             u7360 1F6C  
                                           u7280 1DDE                                             u7520 25E8  
                                           u7600 221E                                             u3985 2502  
                                           u4961 2CA2                                             u7441 2060  
                                           u7361 1F68                                             u7281 1DDA  
                                           u7521 25E4                                             u7601 221A  
                                           u7450 2078                                             u7370 1F96  
                                           u7290 1DEE                                             u7530 25FC  
                                           u7610 2268                                             u7451 2074  
                                           u7371 1F92                                             u7291 1DEA  
                                           u7531 25F8                                             u7515 25B0  
                                           u7611 2264                                             u4980 268C  
                                           u7700 28E2                                             u6900 1548  
                                           u7460 2092                                             u7380 1FBA  
                                           u7540 2624                                             u7620 2286  
                                           u4981 2688                                             u7701 28DE  
                                           u6901 1544                                             u7461 208E  
                                           u7381 1FB6                                             u7541 2620  
                                           u7621 2282                                             u4990 26E6  
                                           u7710 2902                                             u6910 158A  
                                           u7470 20DA                                             u7390 1FD0  
                                           u7550 2644                                             u7630 2296  
                                           u4991 26E2                                             u7711 28FE  
                                           u6911 1586                                             u7471 20D6  
                                           u7391 1FCC                                             u7551 2640  
                                           u7631 2292                                             u7720 2794  
                                           u6920 15A0                                             u7480 210A  
                                           u7560 2654                                             u7640 22A4  
                                           u7721 2790                                             u6921 159C  
                                           u7481 2106                                             u7561 2650  
                                           u7641 22A0                                             u7730 27EC  
                                           u6930 15B2                                             u7490 2138  
                                           u7650 22DE                                             u7570 215E  
                                           u7731 27E8                                             u6931 15AE  
                                           u7491 2134                                             u7651 22DA  
                                           u7571 215A                                             u7740 2812  
                                           u6940 15C2                                             u7660 22EC  
                                           u7580 216C                                             u7741 280E  
                                           u6941 15BE                                             u7661 22E8  
                                           u7581 2168                                             u7750 282E  
                                           u7670 2870                                             u6950 15FE  
                                           u7590 21C8                                             u7751 282A  
                                           u7671 286C                                             u6951 15FA  
                                           u7591 21C4                                             u7760 284E  
                                           u7680 28A0                                             u6960 160C  
                                           u6880 1526                                             u7761 284A  
                                           u7681 289C                                             u6961 1608  
                                           u6881 1522                                             u7690 28C6  
                                           u6970 167A                                             u6890 1538  
                                           u7770 2E9E                                             u7691 28C2  
                                           u6971 1676                                             u6891 1534  
                                           u7771 2E9A                                             u6980 1692  
                                           u6981 168C                                             u6990 1694  
                                           u7870 2996                                             u7871 2992  
                                           u7887 26EC                                             u7897 2FBA  
                                           _TMR2 000FCC                    ??_lcd_4bit_send_enable_signal 000E  
                       _RB4_InterruptHandler_LOW 00A0                                             _main 290A  
                               __end_of_CCP1_ISR 30D6                                 __end_of_CCP2_ISR 30D2  
                       _RB7_InterruptHandler_LOW 0094                                             fsr0h 000FEA  
                                           indf0 000FEF                                             fsr2h 000FDA  
                                           fsr0l 000FE9                                             indf2 000FDF  
                                           fsr1l 000FE1                                             fsr2l 000FD9  
                                           btemp 006D                                             prodl 000FF3  
                                           start 000E                                  ___fldiv@new_exp 0021  
                                   ___param_bank 000000                            _lcd_4bit_send_command 2C94  
                                 _lm35_res_2_txt 00AE                           dc_motor_initialize@ret 0012  
                           _gpio_pin_write_logic 2444                                 __end_of_INT0_ISR 30CA  
                               __end_of_INT1_ISR 30C6                                 __end_of_INT2_ISR 30C2  
                                  _EUSART_RX_ISR 30DA                                    ___fltol@sign1 000A  
                                  _EUSART_TX_ISR 30CA                                  __end_of___fladd 19CC  
                                          ?_main 0001                                  __end_of___fldiv 214C  
                                          _EEADR 000FA9                                  __end_of___fltol 2676  
                                          i2l442 30D8                                            i2l522 30D4  
                                          i2l526 30D0                                            i2l913 30C8  
                                          i2l921 30C0                                            i2l850 30BC  
                                          i2l932 3082                                            i2l917 30C4  
                                          i2l846 30B8                                            i2l943 3068  
                                          i2l954 304E                                            i2l965 3034  
                                          _RCREG 000FAE                              relay_turn_off@F3049 005E  
                                          _TMR0H 000FD7                                            _TMR1H 000FCF  
                                          _TMR0L 000FD6                                            _TMR1L 000FCE  
                                          _TMR3H 000FB3                                            _TMR3L 000FB2  
                                          _SPBRG 000FAF                                            _PORTA 000F80  
                                          _PORTB 000F81                                            _PORTC 000F82  
                                          _PORTD 000F83                                            _PORTE 000F84  
                                          _TRISA 000F92                                            _TRISB 000F93  
                                          _TRISC 000F94                                            _TRISD 000F95  
                                          _TRISE 000F96                                            _TXREG 000FAD  
                      lcd_4bit_set_cursor@coulmn 0017                                 __end_of_TMR0_ISR 30A8  
                               __end_of_TMR1_ISR 309C                                 __end_of_TMR2_ISR 30B0  
                               __end_of_TMR3_ISR 3090                                            _lcd_1 00D3  
                                  _StringToUint8 2BA6                                            tablat 000FF5  
                                          ttemp5 006E                                            ttemp6 0071  
                                          ttemp7 0075                                            status 000FD8  
                                          wtemp8 006E                   ?_gpio_pin_direction_initialize 0002  
                             _lm35_res_1_celsius 0080                                  __initialization 2DDA  
                                   __end_of_main 29BA                            ?_gpio_pin_write_logic 0002  
                                      ??_ADC_ISR 0001                                   ?_EUSART_RX_ISR 0001  
                                 ?_EUSART_TX_ISR 0001                                    _lat_registers 00BF  
                    __end_of_dc_motor_initialize 2FA4                                           ??_main 0048  
                                  __activetblptr 000003                            _TMR3_InterruptHandler 008C  
                               led_turn_on@F3050 0063                                        ??_RB4_ISR 0001  
                                      ??_RB5_ISR 0001                                        ??_RB6_ISR 0001  
                                      ??_RB7_ISR 0001                       _EUSART_OverrunErrorHandler 0084  
                                         _ADRESH 000FC4                                           _EEADRH 000FAA  
                                         _ADRESL 000FC3                                           _EEDATA 000FA8  
                                         _CCPR1H 000FBF                                           _CCPR2H 000FBC  
                                         _CCPR1L 000FBE                                           _CCPR2L 000FBB  
                                         _EECON2 000FA7                                   ?_StringToUint8 0002  
                              _EUSART_ASYNC_Init 2E8C                                           i2l1140 1A0E  
                                         i2l1150 1AAE                                           i2l1142 1A2E  
                                         i2l1160 1BDE                                           i2l1152 1ACE  
                                         i2l1144 1A4E                                           i2l1225 30A6  
                                         i2l1170 1D0E                                           i2l1162 1C22  
                                         i2l1154 1B12                                           i2l1146 1A6E  
                                         i2l1138 19EE                                           i2l1172 1D2E  
                                         i2l1164 1C66                                           i2l1156 1B56  
                                         i2l1148 1A8E                                           i2l1181 1DAE  
                                         i2l1174 1D4E                                           i2l1166 1CAA  
                                         i2l1158 1B9A                                           i2l1176 1D6E  
                                         i2l1168 1CEE                                           i2l1178 1D8E  
                                         i2l1349 30AE                                           i2l1560 30CC  
                                         i2l1298 309A                                           i2l3251 30D2  
                                         i2l1397 308E                                           i2l3247 30D6  
                                         i2l3255 30CE                                           i2l1569 30DA  
                                         i2l3275 30BA                                           i2l6213 30C2  
                                         i2l6205 30B6                                           i2l6221 306C  
                                         i2l7101 1A8A                                           i2l6223 306E  
                                         i2l7111 1ADC                                           i2l7103 1A9C  
                                         i2l6209 30C6                                           i2l6217 30BE  
                                         i2l6321 309E                                           i2l7201 1D4A  
                                         i2l7121 1B20                                           i2l7113 1AEA  
                                         i2l7105 1AAA                                           i2l6243 3068  
                                         i2l6235 3052                                           i2l6251 303A  
                                         i2l6323 30A2                                           i2l6331 3096  
                                         i2l7211 1D9C                                           i2l7203 1D5C  
                                         i2l7131 1B64                                           i2l7123 1B2E  
                                         i2l7115 1AF8                                           i2l7107 1ABC  
                                         i2l6229 3082                                           i2l6237 3054  
                                         i2l6341 3086                                           i2l7213 1DAA  
                                         i2l7205 1D6A                                           i2l7141 1BA8  
                                         i2l7133 1B72                                           i2l7125 1B3C  
                                         i2l7117 1B08                                           i2l7109 1ACA  
                                         i2l6271 3034                                           i2l6263 301E  
                                         i2l6319 309C                                           i2l6327 3090  
                                         i2l6335 30A8                                           i2l6343 308A  
                                         i2l7207 1D7C                                           i2l7151 1BEC  
                                         i2l7143 1BB6                                           i2l7135 1B80  
                                         i2l7127 1B4C                                           i2l7119 1B0C  
                                         i2l6353 30DA                                           i2l6257 304E  
                                         i2l6249 3038                                           i2l6265 3020  
                                         i2l6329 3092                                           i2l7209 1D8A  
                                         i2l7161 1C30                                           i2l7153 1BFA  
                                         i2l7145 1BC4                                           i2l7137 1B90  
                                         i2l7129 1B50                                           i2l7081 19EA  
                                         i2l6347 30CA                                           i2l6339 3084  
                                         i2l7171 1C74                                           i2l7163 1C3E  
                                         i2l7155 1C08                                           i2l7147 1BD4  
                                         i2l7139 1B94                                           i2l7091 1A3C  
                                         i2l7083 19FC                                           i2l7181 1CB8  
                                         i2l7173 1C82                                           i2l7165 1C4C  
                                         i2l7157 1C18                                           i2l7149 1BD8  
                                         i2l7093 1A4A                                           i2l7085 1A0A  
                                         i2l7077 19CE                                           i2l7191 1CFC  
                                         i2l7183 1CC6                                           i2l7175 1C90  
                                         i2l7167 1C5C                                           i2l7159 1C1C  
                                         i2l7095 1A5C                                           i2l7087 1A1C  
                                         i2l7079 19DC                                           i2l7193 1D0A  
                                         i2l7185 1CD4                                           i2l7177 1CA0  
                                         i2l7169 1C60                                           i2l7097 1A6A  
                                         i2l7089 1A2A                                           i2l7195 1D1C  
                                         i2l7187 1CE4                                           i2l7179 1CA4  
                                         i2l7099 1A7C                                           i2l7197 1D2A  
                                         i2l7189 1CE8                                           i2l7199 1D3C  
                                         _SPBRGH 000FB0                               ?_EUSART_ASYNC_Init 0045  
                                         _SSPADD 000FC8                                           _SSPBUF 000FC9  
                               __end_of___xxtofl 2300                 __end_of_lcd_4bit_send_string_pos 2BA6  
                    __end_of_dc_motor_move_right 2F66                           ?_lcd_4bit_send_command 0010  
                            ??_EUSART_ASYNC_Init 0047                                        ??___fladd 0031  
                                      ??___fldiv 0018                                        ??___fltol 0006  
                                         clear_0 2E20                                           clear_1 2E2C  
                                         isa$std 000001                                           _result 00EB  
    _I2C_Report_Receive_Overflow_InterruptHandle 00AA                                        ?_CCP1_ISR 0001  
                                   __pdataCOMRAM 0067                                        ?_CCP2_ISR 0001  
                                   __mediumconst 0000                                           tblptrh 000FF7  
                                         tblptrl 000FF6                                           tblptru 000FF8  
                      __end_of_EUSART_ASYNC_Init 2EDA                     __end_of_EUSART_ASYNC_RX_Init 2856  
                   __end_of_EUSART_ASYNC_TX_Init 290A                                     ___xxtofl@arg 000C  
                                   ___xxtofl@exp 000B                                     ___xxtofl@val 0002  
                                     __accesstop 0080                          __end_of__initialization 2E32  
             EUSART_ASYNC_ReadStringBlocking@ret 0009                                        ?_INT0_ISR 0001  
                                      ?_INT1_ISR 0001                                        ?_INT2_ISR 0001  
                                     _lm35_res_1 0082                                    ___rparam_used 000001  
                                     ___fltol@f1 0002                                 ??_lcd_send_4bits 000F  
                        _lcd_4bit_send_char_data 2C22                                RB5_ISR@RB5_Source 0001  
                         ??_gpio_pin_write_logic 0005                                   __pcstackCOMRAM 0001  
                     _I2C_DefaultInterruptHandle 00AC                                     __pidataBANK0 2FDA  
                                      ?_TMR0_ISR 0001                                  ??_EUSART_RX_ISR 0001  
                                      ?_TMR1_ISR 0001                                        ?_TMR2_ISR 0001  
                                      ?_TMR3_ISR 0001                                  ??_EUSART_TX_ISR 0001  
                       lcd_4bit_send_command@lcd 0010                         lcd_4bit_send_command@ret 0013  
       gpio_pin_direction_initialize@_pin_config 0002                                       ??_CCP1_ISR 0001  
                                     ??_CCP2_ISR 0001                                  ??_StringToUint8 0004  
                                     __pbssBANK0 0080                            _INT0_InterruptHandler 00A8  
                                     ??_INT0_ISR 0001                                       ??_INT1_ISR 0001  
                                     ??_INT2_ISR 0001                                       ??_TMR0_ISR 0001  
                                     ??_TMR1_ISR 0001                                       ??_TMR2_ISR 0001  
                                     ??_TMR3_ISR 0001                                led_turn_off@F3055 0062  
                              _usart_module_init 2E3C                                          _ADC_ISR 30D6  
                    EUSART_ASYNC_TX_Init@_eusart 0002                               ?_usart_module_init 0001  
                              RB7_ISR@RB7_Source 0001                                          _RB4_ISR 306A  
                                        _RB5_ISR 3050                                          _RB6_ISR 3036  
                                        _RB7_ISR 301C                                        ?___xxtofl 0002  
                      ?_lcd_4bit_send_string_pos 001B                        _RB6_InterruptHandler_HIGH 009A  
                                  ?_MSSP_I2C_ISR 0001                             led_turn_toggle@F3060 0061  
                            ??_usart_module_init 0048                                   _tris_registers 00C9  
                       _RB6_InterruptHandler_LOW 0098                        ??_lcd_4bit_send_char_data 0013  
                              ??_MSSP_I2C_BC_ISR 0001           lcd_4bit_initialize@l_data_pins_counter 0018  
                           _ADC_InterruptHandler 005A                                          __Hparam 0000  
                                        __Lparam 0000                        __end_of_usart_module_init 2E8C  
                            _gpio_pin_initialize 2D06                                          ___fladd 150C  
                                        ___fldiv 1DB2                                          ___fltol 2570  
              _EUSART_Baud_Rate_Calculation$5085 0041                                __end_of_btn_value 1011  
                           EUSART_ASYNC_Init@ret 0047                                     __psmallconst 1000  
                           _EUSART_ASYNC_RX_Init 277A                       usart_module_init@usart_obj 00D9  
                           _EUSART_ASYNC_TX_Init 2856                                          __pcinit 2DDA  
                                        __ramtop 1000                                          __ptext0 290A  
                                        __ptext1 2B06                                          __ptext2 29BA  
                                        __ptext3 2C22                                          __ptext4 2EDA  
                                        __ptext5 2F20                                          __ptext6 2FFE  
                                        __ptext7 2E3C                                          __ptext8 2E8C  
                                        __ptext9 102E                                        _T0CONbits 000FD5  
                                      _T1CONbits 000FCD                  ??_gpio_pin_direction_initialize 0004  
                                 ??_MSSP_I2C_ISR 0001                                        _T2CONbits 000FCA  
                                     ??___xxtofl 0006                                        _T3CONbits 000FB1  
                                        _motor_1 006B       EUSART_Baud_Rate_Calculation@Baud_Rate_Temp 003D  
                           ?_gpio_pin_initialize 000C                                   __pintcode_body 19CC  
                           end_of_initialization 2E32                                lcd_send_4bits@lcd 000C  
                              lcd_send_4bits@ret 000F                                          int_func 19CC  
                        ??_lcd_4bit_send_command 0013                                    _dc_motor_stop 2EDA  
                                      _RCSTAbits 000FAB                                          postdec1 000FE5  
                                        postdec2 000FDD                                          postinc0 000FEE  
                                        postinc2 000FDE                            ?_EUSART_ASYNC_RX_Init 0002  
                                     _motor_pin1 0066                                       _motor_pin2 0065  
                          ?_EUSART_ASYNC_TX_Init 0002                              _lcd_4bit_initialize 2676  
                __end_of_lcd_4bit_send_char_data 2C94                            _INT1_InterruptHandler 00A6  
                                      _PORTBbits 000F81                                      ___fladd@grs 0038  
                     lcd_4bit_send_char_data@lcd 0010                       lcd_4bit_send_char_data@ret 0013  
                                  ___xxtofl@sign 000A                                        _TRISCbits 000F94  
                          ??_gpio_pin_initialize 000E                                      ___fldiv@grs 0023  
                                    ___fldiv@rem 001C                             ?_lcd_4bit_initialize 0014  
                                    _CCP1CONbits 000FBD                                      _CCP2CONbits 000FBA  
                                      _TXSTAbits 000FAC                                   ?_dc_motor_stop 000C  
                            _lcd_4bit_set_cursor 29BA                               relay_turn_on@F3044 005F  
                    lcd_4bit_send_string_pos@col 001E                      lcd_4bit_send_string_pos@lcd 001B  
                    lcd_4bit_send_string_pos@ret 0021                      lcd_4bit_send_string_pos@row 001D  
                    lcd_4bit_send_string_pos@str 001F                         EUSART_ASYNC_Init@_eusart 0045  
                                    _BAUDCONbits 000FB8                                    __pidataCOMRAM 30B0  
                            StringToUint8@result 0006                                   _timer0_preload 0050  
                                 _timer1_preload 004E                                   _timer2_preload 005D  
                            start_initialization 2DDA                                   _timer3_preload 004C  
                   ?_lcd_4bit_send_enable_signal 000C              EUSART_Baud_Rate_Calculation@_eusart 0039  
                           ?_lcd_4bit_set_cursor 0014            __end_of_gpio_pin_direction_initialize 2444  
                  _gpio_pin_direction_initialize 2300                            ??_lcd_4bit_initialize 0016  
           __end_of_EUSART_Baud_Rate_Calculation 150C                     _EUSART_Baud_Rate_Calculation 102E  
                         dc_motor_stop@_dc_motor 000C                        _EUSART_RxInterruptHandler 0088  
                           __end_of_MSSP_I2C_ISR 30BA                       _EUSART_FramingErrorHandler 0086  
                         ??_EUSART_ASYNC_RX_Init 0004                           ??_EUSART_ASYNC_TX_Init 0004  
                                    __pdataBANK0 00B5                                         ?_ADC_ISR 0001  
                          __end_of_EUSART_RX_ISR 30DC                            __end_of_EUSART_TX_ISR 30CE  
                   lcd_4bit_send_command@command 0012                                 dc_motor_stop@ret 000E  
                                      ___fladd@a 002D                                        ___fladd@b 0029  
                                      ___fldiv@a 0014                                        ___fldiv@b 0010  
                                       ?_RB4_ISR 0001                                         ?_RB5_ISR 0001  
                                       ?_RB6_ISR 0001                                         ?_RB7_ISR 0001  
                                    __pbssCOMRAM 0048                            ??_lcd_4bit_set_cursor 0018  
    _I2C_Report_Write_Collision_InterruptHandler 0052                                    __pcstackBANK0 00D9  
         EUSART_ASYNC_ReadStringBlocking@str_len 0004                                  _MSSP_I2C_BC_ISR 30BA  
                          __end_of_StringToUint8 2C22                            _INT2_InterruptHandler 00A4  
                                ??_dc_motor_stop 000E                    ?_EUSART_Baud_Rate_Calculation 0039  
                          _TMR0_InterruptHandler 0092                                        __pnvBANK0 00EB  
                                 _app_initialize 2FFE                     __end_of_InterruptManagerHigh 1DB2  
    EUSART_ASYNC_ReadStringBlocking@char_counter 000A                                        __pintcode 0008  
                                       ?___fladd 0029                  gpio_pin_write_logic@_pin_config 0002  
                                       ?___fldiv 0010                                         ?___fltol 0002  
                      gpio_pin_write_logic@logic 0004                                        _btn_value 1001  
                                    __smallconst 1000                        _RB4_InterruptHandler_HIGH 00A2  
                                       _CCP1_ISR 30D2                                         _CCP2_ISR 30CE  
                      _RB7_InterruptHandler_HIGH 0096                           __end_of_app_initialize 301C  
                       _RB5_InterruptHandler_LOW 009C                                         _INT0_ISR 30C6  
                                       _INT1_ISR 30C2                                         _INT2_ISR 30BE  
                                       _RB4_Flag 006A                                         _RB5_Flag 0069  
                                       _RB6_Flag 0068                                         _RB7_Flag 0067  
                              RB4_ISR@RB4_Source 0001                                         _PIE1bits 000F9D  
                                       _PIE2bits 000FA0                    __end_of_lcd_4bit_send_command 2D06  
                                       i2u520_40 304A                                         i2u520_41 3046  
                                       i2u521_40 3030                                         i2u521_41 302C  
                                       _PIR1bits 000F9E                                         i2u610_40 1A0A  
                                       i2u610_41 1A06                                         i2u611_40 1A1C  
                                       i2u611_41 1A18                                         _PIR2bits 000FA1  
                                       i2u620_40 1AAA                                         i2u612_40 1A2A  
                                       i2u620_41 1AA6                                         i2u612_41 1A26  
                                       i2u621_40 1ABC                                         i2u613_40 1A3C  
                                       i2u621_41 1AB8                                         i2u613_41 1A38  
                                       i2u518_40 307E                                         i2u630_40 1B4C  
                                       i2u622_40 1ACA                                         i2u614_40 1A4A  
                                       i2u518_41 307A                                         i2u630_41 1B48  
                                       i2u622_41 1AC6                                         i2u614_41 1A46  
                                       i2u519_40 3064                                         i2u631_40 1B64  
                                       i2u623_40 1ADC                                         i2u615_40 1A5C  
                                       i2u607_40 19DC                                         i2u519_41 3060  
                                       i2u631_41 1B60                                         i2u623_41 1AD8  
                                       i2u615_41 1A58                                         i2u607_41 19D8  
                                       i2u640_40 1BFA                                         i2u632_40 1B72  
                                       i2u624_40 1AEA                                         i2u616_40 1A6A  
                                       i2u608_40 19EA                                         i2u640_41 1BF6  
                                       i2u632_41 1B6E                                         i2u624_41 1AE6  
                                       i2u616_41 1A66                                         i2u608_41 19E6  
                                       i2u641_40 1C08                                         i2u633_40 1B80  
                                       i2u625_40 1AF8                                         i2u617_40 1A7C  
                                       i2u609_40 19FC                                         i2u641_41 1C04  
                                       i2u633_41 1B7C                                         i2u625_41 1AF4  
                                       i2u617_41 1A78                                         i2u609_41 19F8  
                                       i2u650_40 1CA0                                         i2u642_40 1C18  
                                       i2u634_40 1B90                                         i2u626_40 1B08  
                                       i2u618_40 1A8A                                         i2u650_41 1C9C  
                                       i2u642_41 1C14                                         i2u634_41 1B8C  
                                       i2u626_41 1B04                                         i2u618_41 1A86  
                                       i2u651_40 1CB8                                         i2u643_40 1C30  
                                       i2u635_40 1BA8                                         i2u627_40 1B20  
                                       i2u619_40 1A9C                                         i2u651_41 1CB4  
                                       i2u643_41 1C2C                                         i2u635_41 1BA4  
                                       i2u627_41 1B1C                                         i2u619_41 1A98  
                                       i2u660_40 1D4A                                         i2u652_40 1CC6  
                                       i2u644_40 1C3E                                         i2u636_40 1BB6  
                                       i2u628_40 1B2E                                         i2u660_41 1D46  
                                       i2u652_41 1CC2                                         i2u644_41 1C3A  
                                       i2u636_41 1BB2                                         i2u628_41 1B2A  
                                       i2u661_40 1D5C                                         i2u653_40 1CD4  
                                       i2u645_40 1C4C                                         i2u637_40 1BC4  
                                       i2u629_40 1B3C                                         i2u661_41 1D58  
                                       i2u653_41 1CD0                                         i2u645_41 1C48  
                                       i2u637_41 1BC0                                         i2u629_41 1B38  
                                       i2u662_40 1D6A                                         i2u654_40 1CE4  
                                       i2u646_40 1C5C                                         i2u638_40 1BD4  
                                       i2u662_41 1D66                                         i2u654_41 1CE0  
                                       i2u646_41 1C58                                         i2u638_41 1BD0  
                                       i2u663_40 1D7C                                         i2u655_40 1CFC  
                                       i2u647_40 1C74                                         i2u639_40 1BEC  
                                       i2u663_41 1D78                                         i2u655_41 1CF8  
                                       i2u647_41 1C70                                         i2u639_41 1BE8  
                                       i2u664_40 1D8A                                         i2u656_40 1D0A  
                                       i2u648_40 1C82                                         i2u664_41 1D86  
                                       i2u656_41 1D06                                         i2u648_41 1C7E  
                                       i2u665_40 1D9C                                         i2u657_40 1D1C  
                                       i2u649_40 1C90                                         i2u665_41 1D98  
                                       i2u657_41 1D18                                         i2u649_41 1C8C  
                                       i2u666_40 1DAA                                         i2u658_40 1D2A  
                                       i2u666_41 1DA6                                         i2u658_41 1D26  
                                       i2u659_40 1D3C                                         i2u659_41 1D38  
                            _dc_motor_initialize 2F66                     dc_motor_initialize@_dc_motor 0010  
               gpio_pin_direction_initialize@ret 000A                                         _TMR0_ISR 309C  
                                       _TMR1_ISR 3090                                         _TMR2_ISR 30A8  
                                       _TMR3_ISR 3084                 CCP1_Compare_Mode_Set_Value@F3117 0054  
                       _lcd_4bit_send_string_pos 2B06                                       _ADCON0bits 000FC2  
                                     _ADCON1bits 000FC1                                       _ADCON2bits 000FC0  
                        __end_of_MSSP_I2C_BC_ISR 30BE                           gpio_pin_initialize@ret 000F  
                           ?_dc_motor_initialize 0010                          gpio_pin_write_logic@ret 000B  
                                    _INTCON2bits 000FF1                                      _INTCON3bits 000FF0  
                       ?_lcd_4bit_send_char_data 0010                                        copy_data0 2DEE  
                                      copy_data1 2E0E                                  ?_app_initialize 0001  
                            _dc_motor_move_right 2F20                                       _EECON1bits 000FA6  
                                       __Hrparam 0000                                         __Lrparam 0000  
                 ??_EUSART_Baud_Rate_Calculation 003B                      EUSART_ASYNC_RX_Init@_eusart 0002  
                              RB6_ISR@RB6_Source 0001                            _CCP1_InterruptHandler 0058  
                         lcd_4bit_set_cursor@lcd 0014                           lcd_4bit_set_cursor@ret 001A  
                         lcd_4bit_set_cursor@row 0016                             ?_dc_motor_move_right 000C  
                    __end_of_gpio_pin_initialize 2D72                   gpio_pin_initialize@_pin_config 000C  
                          _TMR1_InterruptHandler 0090                                         ___xxtofl 214C  
                                   _MSSP_I2C_ISR 30B6                            ??_dc_motor_initialize 0012  
                           _InterruptManagerHigh 0008   EUSART_ASYNC_ReadStringNonBlocking@char_counter 004A  
                                       __ptext10 214C                                         __ptext11 2570  
                                       __ptext20 2F66                                         __ptext12 1DB2  
                                       __ptext21 2D06                                         __ptext13 150C  
                                       __ptext30 309C                                         __ptext22 2444  
                                       __ptext14 2856                                         __ptext31 301C  
                                       __ptext23 2300                                         __ptext15 277A  
                                       __ptext40 30CA                                         __ptext32 3036  
                                       __ptext24 2BA6                                         __ptext16 2676  
                                       __ptext41 30DA                                         __ptext33 3050  
                                       __ptext25 2A62                                         __ptext17 2C94  
                                       __ptext42 30CE                                         __ptext34 306A  
                                       __ptext18 2D72                                         __ptext43 30D2  
                                       __ptext35 30B6                                         __ptext27 3084  
                                       __ptext19 2FA4                                         __ptext44 30D6  
                                       __ptext36 30BA                                         __ptext28 30A8  
                                       __ptext37 30BE                                         __ptext29 3090  
                                       __ptext38 30C2                                         __ptext39 30C6  
                         dc_motor_move_right@ret 000E                                         isa$xinst 000000  
                                       int$flags 006D                            ??_dc_motor_move_right 000E  
                                 _rec_usart_data 005C                                   _lcd_send_4bits 2D72  
                              StringToUint8@sign 0005                                 ?_MSSP_I2C_BC_ISR 0001  
                                     _INTCONbits 000FF2                      __end_of_lcd_4bit_initialize 277A  
                          ?_InterruptManagerHigh 0001                     __end_of_gpio_pin_write_logic 2570  
        __end_of_EUSART_ASYNC_ReadStringBlocking 2B06                ??_EUSART_ASYNC_ReadStringBlocking 0006  
               ?_EUSART_ASYNC_ReadStringBlocking 0002                  _EUSART_ASYNC_ReadStringBlocking 2A62  
                                       intlevel2 0000                   lcd_4bit_send_enable_signal@lcd 000C  
                 lcd_4bit_send_enable_signal@ret 000E                        _EUSART_TxInterruptHandler 008A  
                         __end_of_lcd_send_4bits 2DDA                                 StringToUint8@str 0002  
                   dc_motor_move_right@_dc_motor 000C                      __end_of_lcd_4bit_set_cursor 2A62  
                                 _port_registers 00B5                                      _SSPCON1bits 000FC6  
                                    _SSPCON2bits 000FC5                                    ___fladd@signs 0035  
                          _CCP2_InterruptHandler 0056  EUSART_ASYNC_WriteStringNonBlocking@char_counter 0048  
                                   ___fladd@aexp 0036                                     ___fladd@bexp 0037  
                    lcd_4bit_send_char_data@data 0012                            _TMR2_InterruptHandler 008E  
                          __end_of_dc_motor_stop 2F20                       ??_lcd_4bit_send_string_pos 0021  
                         lcd_4bit_initialize@lcd 0014                           lcd_4bit_initialize@ret 0019  
